Wednesday, September 14, 15:30:56, 2022

                    * Generalplus u'nSP Linker version 1.14.13.18
                    -------------------------------------------

Global Symbol Name                                Global Value     Global Filename
***********************************************************************************************************************************************************************************************************************************************************************************************************
_main                                                    205621    "D:\Prj_GPCE3400\ZMM001A(EN)_MMMMMMM\soft\V44_asV34\Debug\main.obj"
_Switch_Mode                                             5F2       "D:\Prj_GPCE3400\ZMM001A(EN)_MMMMMMM\soft\V44_asV34\Debug\main.obj"
_Switch_Mode_Pre                                         5F3       "D:\Prj_GPCE3400\ZMM001A(EN)_MMMMMMM\soft\V44_asV34\Debug\main.obj"
_IO_Buffer                                               5F4       "D:\Prj_GPCE3400\ZMM001A(EN)_MMMMMMM\soft\V44_asV34\Debug\main.obj"
_R_DebounceCnt                                           5F5       "D:\Prj_GPCE3400\ZMM001A(EN)_MMMMMMM\soft\V44_asV34\Debug\main.obj"
_TimeCnt                                                 5F6       "D:\Prj_GPCE3400\ZMM001A(EN)_MMMMMMM\soft\V44_asV34\Debug\main.obj"
_TimeCnt_Testingmode                                     5F7       "D:\Prj_GPCE3400\ZMM001A(EN)_MMMMMMM\soft\V44_asV34\Debug\main.obj"
_gTemp                                                   5F8       "D:\Prj_GPCE3400\ZMM001A(EN)_MMMMMMM\soft\V44_asV34\Debug\main.obj"
_gVolume                                                 5F9       "D:\Prj_GPCE3400\ZMM001A(EN)_MMMMMMM\soft\V44_asV34\Debug\main.obj"
_Key_Debounce                                            5FA       "D:\Prj_GPCE3400\ZMM001A(EN)_MMMMMMM\soft\V44_asV34\Debug\main.obj"
_BREAK                                                   204C14    "D:\Prj_GPCE3400\ZMM001A(EN)_MMMMMMM\soft\V44_asV34\Debug\isr.obj"
_FIQ                                                     204C18    "D:\Prj_GPCE3400\ZMM001A(EN)_MMMMMMM\soft\V44_asV34\Debug\isr.obj"
_IRQ0                                                    204C42    "D:\Prj_GPCE3400\ZMM001A(EN)_MMMMMMM\soft\V44_asV34\Debug\isr.obj"
_IRQ1                                                    204C46    "D:\Prj_GPCE3400\ZMM001A(EN)_MMMMMMM\soft\V44_asV34\Debug\isr.obj"
_IRQ2                                                    204C4E    "D:\Prj_GPCE3400\ZMM001A(EN)_MMMMMMM\soft\V44_asV34\Debug\isr.obj"
_IRQ3                                                    204C56    "D:\Prj_GPCE3400\ZMM001A(EN)_MMMMMMM\soft\V44_asV34\Debug\isr.obj"
_IRQ4                                                    204C5A    "D:\Prj_GPCE3400\ZMM001A(EN)_MMMMMMM\soft\V44_asV34\Debug\isr.obj"
_IRQ5                                                    204C61    "D:\Prj_GPCE3400\ZMM001A(EN)_MMMMMMM\soft\V44_asV34\Debug\isr.obj"
_IRQ6                                                    204C65    "D:\Prj_GPCE3400\ZMM001A(EN)_MMMMMMM\soft\V44_asV34\Debug\isr.obj"
_IRQ7                                                    204C9E    "D:\Prj_GPCE3400\ZMM001A(EN)_MMMMMMM\soft\V44_asV34\Debug\isr.obj"
_RES_Table                                               204800    "D:\Prj_GPCE3400\ZMM001A(EN)_MMMMMMM\soft\V44_asV34\Debug\Resource.obj"
_SPI_Resources_Folder_Table                              204800    "D:\Prj_GPCE3400\ZMM001A(EN)_MMMMMMM\soft\V44_asV34\Debug\Resource.obj"
_RES_ROM_ZMM_V03_BIN_SA                                  204800    "D:\Prj_GPCE3400\ZMM001A(EN)_MMMMMMM\soft\V44_asV34\Debug\Resource.obj"
_RES_ROM_ZMM_V03_BIN_EA                                  204802    "D:\Prj_GPCE3400\ZMM001A(EN)_MMMMMMM\soft\V44_asV34\Debug\Resource.obj"
T_SACM_A1800_SpeechTable                                 204804    "D:\Prj_GPCE3400\ZMM001A(EN)_MMMMMMM\soft\V44_asV34\Debug\Resource.obj"
T_SACM_A3400_SpeechTable                                 204804    "D:\Prj_GPCE3400\ZMM001A(EN)_MMMMMMM\soft\V44_asV34\Debug\Resource.obj"
T_SACM_MS02_InstrumentSet                                204804    "D:\Prj_GPCE3400\ZMM001A(EN)_MMMMMMM\soft\V44_asV34\Debug\Resource.obj"
T_SACM_MS02_MIDITable                                    204804    "D:\Prj_GPCE3400\ZMM001A(EN)_MMMMMMM\soft\V44_asV34\Debug\Resource.obj"
__sn_init_table                                          2034DB    "Linker internal symbol"
__sn_sp_val                                              BFF       "Linker internal symbol"
D_A1800_IO_EVENT_NUM                                     2018A0    "D:\Prj_GPCE3400\ZMM001A(EN)_MMMMMMM\soft\V44_asV34\Debug\SACM_A1800_User.obj"
D_A1800_SW_PWM_LEVEL                                     2018A1    "D:\Prj_GPCE3400\ZMM001A(EN)_MMMMMMM\soft\V44_asV34\Debug\SACM_A1800_User.obj"
T_A1800_IO_Event                                         2018A2    "D:\Prj_GPCE3400\ZMM001A(EN)_MMMMMMM\soft\V44_asV34\Debug\SACM_A1800_User.obj"
_USER_A1800_SetStartAddr                                 20514E    "D:\Prj_GPCE3400\ZMM001A(EN)_MMMMMMM\soft\V44_asV34\Debug\SACM_A1800_User.obj"
_USER_A1800_SetStartAddr_Con                             205174    "D:\Prj_GPCE3400\ZMM001A(EN)_MMMMMMM\soft\V44_asV34\Debug\SACM_A1800_User.obj"
F_USER_A1800_SetStartAddr_Con                            205177    "D:\Prj_GPCE3400\ZMM001A(EN)_MMMMMMM\soft\V44_asV34\Debug\SACM_A1800_User.obj"
F_USER_A1800_GetData                                     2050ED    "D:\Prj_GPCE3400\ZMM001A(EN)_MMMMMMM\soft\V44_asV34\Debug\SACM_A1800_User.obj"
_USER_A1800_Volume                                       205141    "D:\Prj_GPCE3400\ZMM001A(EN)_MMMMMMM\soft\V44_asV34\Debug\SACM_A1800_User.obj"
F_USER_A1800_Volume                                      205144    "D:\Prj_GPCE3400\ZMM001A(EN)_MMMMMMM\soft\V44_asV34\Debug\SACM_A1800_User.obj"
F_SACM_A1800_SendDAC1                                    2050C0    "D:\Prj_GPCE3400\ZMM001A(EN)_MMMMMMM\soft\V44_asV34\Debug\SACM_A1800_User.obj"
F_SACM_A1800_SendDAC2                                    2050D2    "D:\Prj_GPCE3400\ZMM001A(EN)_MMMMMMM\soft\V44_asV34\Debug\SACM_A1800_User.obj"
F_SACM_A1800_StartPlay                                   2050D5    "D:\Prj_GPCE3400\ZMM001A(EN)_MMMMMMM\soft\V44_asV34\Debug\SACM_A1800_User.obj"
F_SACM_A1800_EndPlay                                     2050D6    "D:\Prj_GPCE3400\ZMM001A(EN)_MMMMMMM\soft\V44_asV34\Debug\SACM_A1800_User.obj"
F_SACM_A1800_Init_                                       204849    "D:\Prj_GPCE3400\ZMM001A(EN)_MMMMMMM\soft\V44_asV34\Debug\SACM_A1800_User.obj"
F_SACM_A1800_DAC_Timer_X2                                204868    "D:\Prj_GPCE3400\ZMM001A(EN)_MMMMMMM\soft\V44_asV34\Debug\SACM_A1800_User.obj"
F_SACM_A1800_GetStartAddr_Con                            2050E4    "D:\Prj_GPCE3400\ZMM001A(EN)_MMMMMMM\soft\V44_asV34\Debug\SACM_A1800_User.obj"
F_A1800_USER_GetEvtData                                  205115    "D:\Prj_GPCE3400\ZMM001A(EN)_MMMMMMM\soft\V44_asV34\Debug\SACM_A1800_User.obj"
F_A1800_USER_IoEvtStart                                  205118    "D:\Prj_GPCE3400\ZMM001A(EN)_MMMMMMM\soft\V44_asV34\Debug\SACM_A1800_User.obj"
F_A1800_USER_IoEvtEnd                                    205129    "D:\Prj_GPCE3400\ZMM001A(EN)_MMMMMMM\soft\V44_asV34\Debug\SACM_A1800_User.obj"
F_A1800_USER_EvtProcess                                  20513A    "D:\Prj_GPCE3400\ZMM001A(EN)_MMMMMMM\soft\V44_asV34\Debug\SACM_A1800_User.obj"
F_A1800_USER_SoundProcess                                20513B    "D:\Prj_GPCE3400\ZMM001A(EN)_MMMMMMM\soft\V44_asV34\Debug\SACM_A1800_User.obj"
R_AUDIO_CH1_Data                                         5B4       "D:\Prj_GPCE3400\ZMM001A(EN)_MMMMMMM\soft\V44_asV34\Debug\SACM_A1800_User.obj"
_System_ServiceLoop                                      204F3A    "D:\Prj_GPCE3400\ZMM001A(EN)_MMMMMMM\soft\V44_asV34\Debug\system.obj"
F_System_ServiceLoop                                     204F3A    "D:\Prj_GPCE3400\ZMM001A(EN)_MMMMMMM\soft\V44_asV34\Debug\system.obj"
_WatchdogClear                                           204F35    "D:\Prj_GPCE3400\ZMM001A(EN)_MMMMMMM\soft\V44_asV34\Debug\system.obj"
F_WatchdogClear                                          204F35    "D:\Prj_GPCE3400\ZMM001A(EN)_MMMMMMM\soft\V44_asV34\Debug\system.obj"
_SP_RampUpDAC1                                           204F79    "D:\Prj_GPCE3400\ZMM001A(EN)_MMMMMMM\soft\V44_asV34\Debug\system.obj"
F_SP_RampUpDAC1                                          204F79    "D:\Prj_GPCE3400\ZMM001A(EN)_MMMMMMM\soft\V44_asV34\Debug\system.obj"
_SP_RampDnDAC1                                           204F47    "D:\Prj_GPCE3400\ZMM001A(EN)_MMMMMMM\soft\V44_asV34\Debug\system.obj"
F_SP_RampDnDAC1                                          204F47    "D:\Prj_GPCE3400\ZMM001A(EN)_MMMMMMM\soft\V44_asV34\Debug\system.obj"
_SP_RampUpDAC2                                           204F92    "D:\Prj_GPCE3400\ZMM001A(EN)_MMMMMMM\soft\V44_asV34\Debug\system.obj"
F_SP_RampUpDAC2                                          204F92    "D:\Prj_GPCE3400\ZMM001A(EN)_MMMMMMM\soft\V44_asV34\Debug\system.obj"
_SP_RampDnDAC2                                           204F60    "D:\Prj_GPCE3400\ZMM001A(EN)_MMMMMMM\soft\V44_asV34\Debug\system.obj"
F_SP_RampDnDAC2                                          204F60    "D:\Prj_GPCE3400\ZMM001A(EN)_MMMMMMM\soft\V44_asV34\Debug\system.obj"
_SoftwareReset                                           204F3D    "D:\Prj_GPCE3400\ZMM001A(EN)_MMMMMMM\soft\V44_asV34\Debug\system.obj"
F_SoftwareReset                                          204F3D    "D:\Prj_GPCE3400\ZMM001A(EN)_MMMMMMM\soft\V44_asV34\Debug\system.obj"
_Sys_clock_init_Only                                     204EC3    "D:\Prj_GPCE3400\ZMM001A(EN)_MMMMMMM\soft\V44_asV34\Debug\system.obj"
_Sys_clock_init                                          204ED3    "D:\Prj_GPCE3400\ZMM001A(EN)_MMMMMMM\soft\V44_asV34\Debug\system.obj"
_Time_init                                               204F08    "D:\Prj_GPCE3400\ZMM001A(EN)_MMMMMMM\soft\V44_asV34\Debug\system.obj"
_Time_init_TestMode                                      204F1E    "D:\Prj_GPCE3400\ZMM001A(EN)_MMMMMMM\soft\V44_asV34\Debug\system.obj"
_SP_RampUpDAC1_Other                                     204FAB    "D:\Prj_GPCE3400\ZMM001A(EN)_MMMMMMM\soft\V44_asV34\Debug\system.obj"
F_DAC1RampDnISR                                          204FD9    "D:\Prj_GPCE3400\ZMM001A(EN)_MMMMMMM\soft\V44_asV34\Debug\system.obj"
_A1800Stop                                               204FEA    "D:\Prj_GPCE3400\ZMM001A(EN)_MMMMMMM\soft\V44_asV34\Debug\system.obj"
F_SW_MuteControl                                         205000    "D:\Prj_GPCE3400\ZMM001A(EN)_MMMMMMM\soft\V44_asV34\Debug\system.obj"
__sn_ram_end                                             72A       "Linker internal symbol"
_SPI_ReadAWord                                           2049F8    "D:\Prj_GPCE3400\ZMM001A(EN)_MMMMMMM\soft\V44_asV34\Debug\flash.obj"
F_SPI_ReadAWord                                          2049FC    "D:\Prj_GPCE3400\ZMM001A(EN)_MMMMMMM\soft\V44_asV34\Debug\flash.obj"
_SPI_ReadNWords_LH                                       204A53    "D:\Prj_GPCE3400\ZMM001A(EN)_MMMMMMM\soft\V44_asV34\Debug\flash.obj"
F_SPI_ReadNWords_LH                                      204A59    "D:\Prj_GPCE3400\ZMM001A(EN)_MMMMMMM\soft\V44_asV34\Debug\flash.obj"
_SPI_ReadAWord_Big                                       204A14    "D:\Prj_GPCE3400\ZMM001A(EN)_MMMMMMM\soft\V44_asV34\Debug\flash.obj"
_SPI_ReadAByte                                           204A37    "D:\Prj_GPCE3400\ZMM001A(EN)_MMMMMMM\soft\V44_asV34\Debug\flash.obj"
_mul2                                                    204804    "D:\Prj_GPCE3400\ZMM001A(EN)_MMMMMMM\soft\V44_asV34\Debug\Calc.obj"
_Low16                                                   204823    "D:\Prj_GPCE3400\ZMM001A(EN)_MMMMMMM\soft\V44_asV34\Debug\Calc.obj"
_High16                                                  20482E    "D:\Prj_GPCE3400\ZMM001A(EN)_MMMMMMM\soft\V44_asV34\Debug\Calc.obj"
_SP_SwitchChannel                                        204D81    "D:\Prj_GPCE3400\ZMM001A(EN)_MMMMMMM\soft\V44_asV34\Debug\System_2.obj"
F_SP_SwitchChannel                                       204D81    "D:\Prj_GPCE3400\ZMM001A(EN)_MMMMMMM\soft\V44_asV34\Debug\System_2.obj"
_DAC1_RampDnFlag                                         5B8       "D:\Prj_GPCE3400\ZMM001A(EN)_MMMMMMM\soft\V44_asV34\Debug\System_2.obj"
_Sleep                                                   204E45    "D:\Prj_GPCE3400\ZMM001A(EN)_MMMMMMM\soft\V44_asV34\Debug\System_2.obj"
_OtherSph_Random_Value                                   5B9       "D:\Prj_GPCE3400\ZMM001A(EN)_MMMMMMM\soft\V44_asV34\Debug\System_2.obj"
_IO_init                                                 204D82    "D:\Prj_GPCE3400\ZMM001A(EN)_MMMMMMM\soft\V44_asV34\Debug\System_2.obj"
_IO_init_Wakeup                                          204DA8    "D:\Prj_GPCE3400\ZMM001A(EN)_MMMMMMM\soft\V44_asV34\Debug\System_2.obj"
F_Switch_Check                                           204DC1    "D:\Prj_GPCE3400\ZMM001A(EN)_MMMMMMM\soft\V44_asV34\Debug\System_2.obj"
_Sleep_Io                                                204E02    "D:\Prj_GPCE3400\ZMM001A(EN)_MMMMMMM\soft\V44_asV34\Debug\System_2.obj"
_Set_Sleep_IO                                            204E26    "D:\Prj_GPCE3400\ZMM001A(EN)_MMMMMMM\soft\V44_asV34\Debug\System_2.obj"
_delaytest                                               204E94    "D:\Prj_GPCE3400\ZMM001A(EN)_MMMMMMM\soft\V44_asV34\Debug\System_2.obj"
_Light_all_off                                           20486F    "D:\Prj_GPCE3400\ZMM001A(EN)_MMMMMMM\soft\V44_asV34\Debug\LED_Drive.obj"
_Led_Blink                                               204876    "D:\Prj_GPCE3400\ZMM001A(EN)_MMMMMMM\soft\V44_asV34\Debug\LED_Drive.obj"
_Get_Question_Answer                                     205BF9    "D:\Prj_GPCE3400\ZMM001A(EN)_MMMMMMM\soft\V44_asV34\Debug\Algorithm.obj"
_Sleep_IO_Temp                                           5FB       "D:\Prj_GPCE3400\ZMM001A(EN)_MMMMMMM\soft\V44_asV34\Debug\Algorithm.obj"
_Wakeup_IO_Temp                                          5FC       "D:\Prj_GPCE3400\ZMM001A(EN)_MMMMMMM\soft\V44_asV34\Debug\Algorithm.obj"
_Wakeup_IO_Temp_debouce                                  5FD       "D:\Prj_GPCE3400\ZMM001A(EN)_MMMMMMM\soft\V44_asV34\Debug\Algorithm.obj"
_TimeCnt_Key                                             5FE       "D:\Prj_GPCE3400\ZMM001A(EN)_MMMMMMM\soft\V44_asV34\Debug\Algorithm.obj"
_T_Countdowncnt                                          5FF       "D:\Prj_GPCE3400\ZMM001A(EN)_MMMMMMM\soft\V44_asV34\Debug\Algorithm.obj"
_Restart                                                 600       "D:\Prj_GPCE3400\ZMM001A(EN)_MMMMMMM\soft\V44_asV34\Debug\Algorithm.obj"
_Cn                                                      601       "D:\Prj_GPCE3400\ZMM001A(EN)_MMMMMMM\soft\V44_asV34\Debug\Algorithm.obj"
_Registerd_Num                                           602       "D:\Prj_GPCE3400\ZMM001A(EN)_MMMMMMM\soft\V44_asV34\Debug\Algorithm.obj"
_T1                                                      603       "D:\Prj_GPCE3400\ZMM001A(EN)_MMMMMMM\soft\V44_asV34\Debug\Algorithm.obj"
_T2                                                      604       "D:\Prj_GPCE3400\ZMM001A(EN)_MMMMMMM\soft\V44_asV34\Debug\Algorithm.obj"
_LastCategory_Series                                     605       "D:\Prj_GPCE3400\ZMM001A(EN)_MMMMMMM\soft\V44_asV34\Debug\Algorithm.obj"
_Round                                                   669       "D:\Prj_GPCE3400\ZMM001A(EN)_MMMMMMM\soft\V44_asV34\Debug\Algorithm.obj"
_Player_Activing_Bit                                     66A       "D:\Prj_GPCE3400\ZMM001A(EN)_MMMMMMM\soft\V44_asV34\Debug\Algorithm.obj"
_Player_Activing_Cnt                                     66B       "D:\Prj_GPCE3400\ZMM001A(EN)_MMMMMMM\soft\V44_asV34\Debug\Algorithm.obj"
_Player_Activing_Bit_sec                                 66C       "D:\Prj_GPCE3400\ZMM001A(EN)_MMMMMMM\soft\V44_asV34\Debug\Algorithm.obj"
_LQA                                                     66D       "D:\Prj_GPCE3400\ZMM001A(EN)_MMMMMMM\soft\V44_asV34\Debug\Algorithm.obj"
_gQuestionIdx                                            66E       "D:\Prj_GPCE3400\ZMM001A(EN)_MMMMMMM\soft\V44_asV34\Debug\Algorithm.obj"
_gQuestionIdx_1                                          66F       "D:\Prj_GPCE3400\ZMM001A(EN)_MMMMMMM\soft\V44_asV34\Debug\Algorithm.obj"
_Player_Point                                            670       "D:\Prj_GPCE3400\ZMM001A(EN)_MMMMMMM\soft\V44_asV34\Debug\Algorithm.obj"
_Rounds                                                  67A       "D:\Prj_GPCE3400\ZMM001A(EN)_MMMMMMM\soft\V44_asV34\Debug\Algorithm.obj"
_Pingame                                                 684       "D:\Prj_GPCE3400\ZMM001A(EN)_MMMMMMM\soft\V44_asV34\Debug\Algorithm.obj"
_Pselected                                               686       "D:\Prj_GPCE3400\ZMM001A(EN)_MMMMMMM\soft\V44_asV34\Debug\Algorithm.obj"
_R_QuestionNum                                           688       "D:\Prj_GPCE3400\ZMM001A(EN)_MMMMMMM\soft\V44_asV34\Debug\Algorithm.obj"
_Timeout_cnt                                             689       "D:\Prj_GPCE3400\ZMM001A(EN)_MMMMMMM\soft\V44_asV34\Debug\Algorithm.obj"
_Key_activeflag                                          68A       "D:\Prj_GPCE3400\ZMM001A(EN)_MMMMMMM\soft\V44_asV34\Debug\Algorithm.obj"
_TwoKey_temp                                             68B       "D:\Prj_GPCE3400\ZMM001A(EN)_MMMMMMM\soft\V44_asV34\Debug\Algorithm.obj"
_Registered_Play_Status                                  68C       "D:\Prj_GPCE3400\ZMM001A(EN)_MMMMMMM\soft\V44_asV34\Debug\Algorithm.obj"
_QuestionCycle                                           68D       "D:\Prj_GPCE3400\ZMM001A(EN)_MMMMMMM\soft\V44_asV34\Debug\Algorithm.obj"
_Pre_Active_Player                                       691       "D:\Prj_GPCE3400\ZMM001A(EN)_MMMMMMM\soft\V44_asV34\Debug\Algorithm.obj"
_Cur_Active_Player                                       692       "D:\Prj_GPCE3400\ZMM001A(EN)_MMMMMMM\soft\V44_asV34\Debug\Algorithm.obj"
_Key_Event                                               693       "D:\Prj_GPCE3400\ZMM001A(EN)_MMMMMMM\soft\V44_asV34\Debug\Algorithm.obj"
_BlinkFlag_Data                                          694       "D:\Prj_GPCE3400\ZMM001A(EN)_MMMMMMM\soft\V44_asV34\Debug\Algorithm.obj"
_Eventflag                                               695       "D:\Prj_GPCE3400\ZMM001A(EN)_MMMMMMM\soft\V44_asV34\Debug\Algorithm.obj"
_Answer_Right_Player                                     696       "D:\Prj_GPCE3400\ZMM001A(EN)_MMMMMMM\soft\V44_asV34\Debug\Algorithm.obj"
_Answer_Wrong_Player                                     697       "D:\Prj_GPCE3400\ZMM001A(EN)_MMMMMMM\soft\V44_asV34\Debug\Algorithm.obj"
_No_Answer_Player                                        698       "D:\Prj_GPCE3400\ZMM001A(EN)_MMMMMMM\soft\V44_asV34\Debug\Algorithm.obj"
_Question_Answer                                         699       "D:\Prj_GPCE3400\ZMM001A(EN)_MMMMMMM\soft\V44_asV34\Debug\Algorithm.obj"
_SeriesAcnt                                              69A       "D:\Prj_GPCE3400\ZMM001A(EN)_MMMMMMM\soft\V44_asV34\Debug\Algorithm.obj"
_SeriesBcnt                                              69B       "D:\Prj_GPCE3400\ZMM001A(EN)_MMMMMMM\soft\V44_asV34\Debug\Algorithm.obj"
_Series_eventsolo                                        69C       "D:\Prj_GPCE3400\ZMM001A(EN)_MMMMMMM\soft\V44_asV34\Debug\Algorithm.obj"
_Leader_Player                                           69D       "D:\Prj_GPCE3400\ZMM001A(EN)_MMMMMMM\soft\V44_asV34\Debug\Algorithm.obj"
_Lowest_Player                                           69E       "D:\Prj_GPCE3400\ZMM001A(EN)_MMMMMMM\soft\V44_asV34\Debug\Algorithm.obj"
_Leader_Player_pre                                       69F       "D:\Prj_GPCE3400\ZMM001A(EN)_MMMMMMM\soft\V44_asV34\Debug\Algorithm.obj"
_Special_temp                                            6A0       "D:\Prj_GPCE3400\ZMM001A(EN)_MMMMMMM\soft\V44_asV34\Debug\Algorithm.obj"
_L14flag                                                 6A1       "D:\Prj_GPCE3400\ZMM001A(EN)_MMMMMMM\soft\V44_asV34\Debug\Algorithm.obj"
_Higgest_T                                               6A2       "D:\Prj_GPCE3400\ZMM001A(EN)_MMMMMMM\soft\V44_asV34\Debug\Algorithm.obj"
_Lowest_T                                                6A3       "D:\Prj_GPCE3400\ZMM001A(EN)_MMMMMMM\soft\V44_asV34\Debug\Algorithm.obj"
_Cycle_Timeout_cnt                                       6A4       "D:\Prj_GPCE3400\ZMM001A(EN)_MMMMMMM\soft\V44_asV34\Debug\Algorithm.obj"
_Key_TrueFlase_Buffer                                    6A5       "D:\Prj_GPCE3400\ZMM001A(EN)_MMMMMMM\soft\V44_asV34\Debug\Algorithm.obj"
_Question_Quality_Last                                   6A6       "D:\Prj_GPCE3400\ZMM001A(EN)_MMMMMMM\soft\V44_asV34\Debug\Algorithm.obj"
_Last2Cat                                                6AC       "D:\Prj_GPCE3400\ZMM001A(EN)_MMMMMMM\soft\V44_asV34\Debug\Algorithm.obj"
_PlayScoresFlag                                          6AE       "D:\Prj_GPCE3400\ZMM001A(EN)_MMMMMMM\soft\V44_asV34\Debug\Algorithm.obj"
_Sleepflag                                               6AF       "D:\Prj_GPCE3400\ZMM001A(EN)_MMMMMMM\soft\V44_asV34\Debug\Algorithm.obj"
_Tieflag                                                 6B0       "D:\Prj_GPCE3400\ZMM001A(EN)_MMMMMMM\soft\V44_asV34\Debug\Algorithm.obj"
_Cheater_SeletQu_Flag                                    6B1       "D:\Prj_GPCE3400\ZMM001A(EN)_MMMMMMM\soft\V44_asV34\Debug\Algorithm.obj"
_VOL1Flag                                                6B2       "D:\Prj_GPCE3400\ZMM001A(EN)_MMMMMMM\soft\V44_asV34\Debug\Algorithm.obj"
_Speed_BonusFlag                                         6B3       "D:\Prj_GPCE3400\ZMM001A(EN)_MMMMMMM\soft\V44_asV34\Debug\Algorithm.obj"
_Time_Countdown                                          6B4       "D:\Prj_GPCE3400\ZMM001A(EN)_MMMMMMM\soft\V44_asV34\Debug\Algorithm.obj"
_firstFlag_23b                                           6B5       "D:\Prj_GPCE3400\ZMM001A(EN)_MMMMMMM\soft\V44_asV34\Debug\Algorithm.obj"
_FreeKick_Flag                                           6B6       "D:\Prj_GPCE3400\ZMM001A(EN)_MMMMMMM\soft\V44_asV34\Debug\Algorithm.obj"
_Dis_Player                                              6B7       "D:\Prj_GPCE3400\ZMM001A(EN)_MMMMMMM\soft\V44_asV34\Debug\Algorithm.obj"
_Countdownflag                                           6B8       "D:\Prj_GPCE3400\ZMM001A(EN)_MMMMMMM\soft\V44_asV34\Debug\Algorithm.obj"
_Soloflag                                                6B9       "D:\Prj_GPCE3400\ZMM001A(EN)_MMMMMMM\soft\V44_asV34\Debug\Algorithm.obj"
_Difficulty                                              6BA       "D:\Prj_GPCE3400\ZMM001A(EN)_MMMMMMM\soft\V44_asV34\Debug\Algorithm.obj"
_Diff_int                                                6BB       "D:\Prj_GPCE3400\ZMM001A(EN)_MMMMMMM\soft\V44_asV34\Debug\Algorithm.obj"
_qestion_quality                                         6BC       "D:\Prj_GPCE3400\ZMM001A(EN)_MMMMMMM\soft\V44_asV34\Debug\Algorithm.obj"
_Ca                                                      6BD       "D:\Prj_GPCE3400\ZMM001A(EN)_MMMMMMM\soft\V44_asV34\Debug\Algorithm.obj"
_RecordV                                                 6BE       "D:\Prj_GPCE3400\ZMM001A(EN)_MMMMMMM\soft\V44_asV34\Debug\Algorithm.obj"
_Temp_Registered_Play_Select                             6BF       "D:\Prj_GPCE3400\ZMM001A(EN)_MMMMMMM\soft\V44_asV34\Debug\Algorithm.obj"
_Key_buffer_First_temp                                   6C0       "D:\Prj_GPCE3400\ZMM001A(EN)_MMMMMMM\soft\V44_asV34\Debug\Algorithm.obj"
_LFXFlag_Data                                            6C1       "D:\Prj_GPCE3400\ZMM001A(EN)_MMMMMMM\soft\V44_asV34\Debug\Algorithm.obj"
_LFX_Data_Cnt                                            6C2       "D:\Prj_GPCE3400\ZMM001A(EN)_MMMMMMM\soft\V44_asV34\Debug\Algorithm.obj"
_VolumeEnable                                            6C3       "D:\Prj_GPCE3400\ZMM001A(EN)_MMMMMMM\soft\V44_asV34\Debug\Algorithm.obj"
_NextCnt                                                 6C4       "D:\Prj_GPCE3400\ZMM001A(EN)_MMMMMMM\soft\V44_asV34\Debug\Algorithm.obj"
_TooLate_Cnt                                             6C5       "D:\Prj_GPCE3400\ZMM001A(EN)_MMMMMMM\soft\V44_asV34\Debug\Algorithm.obj"
_TooLatesolo_Cnt                                         6C6       "D:\Prj_GPCE3400\ZMM001A(EN)_MMMMMMM\soft\V44_asV34\Debug\Algorithm.obj"
_Record                                                  6C7       "D:\Prj_GPCE3400\ZMM001A(EN)_MMMMMMM\soft\V44_asV34\Debug\Algorithm.obj"
_R_E                                                     6C8       "D:\Prj_GPCE3400\ZMM001A(EN)_MMMMMMM\soft\V44_asV34\Debug\Algorithm.obj"
_NumRounds                                               6C9       "D:\Prj_GPCE3400\ZMM001A(EN)_MMMMMMM\soft\V44_asV34\Debug\Algorithm.obj"
_CurrentRound                                            6CA       "D:\Prj_GPCE3400\ZMM001A(EN)_MMMMMMM\soft\V44_asV34\Debug\Algorithm.obj"
_SinceLastE                                              6CB       "D:\Prj_GPCE3400\ZMM001A(EN)_MMMMMMM\soft\V44_asV34\Debug\Algorithm.obj"
_R_2SLoop                                                6CC       "D:\Prj_GPCE3400\ZMM001A(EN)_MMMMMMM\soft\V44_asV34\Debug\Algorithm.obj"
_Tie                                                     6CD       "D:\Prj_GPCE3400\ZMM001A(EN)_MMMMMMM\soft\V44_asV34\Debug\Algorithm.obj"
_End20flag                                               6CE       "D:\Prj_GPCE3400\ZMM001A(EN)_MMMMMMM\soft\V44_asV34\Debug\Algorithm.obj"
_Answerflag                                              6CF       "D:\Prj_GPCE3400\ZMM001A(EN)_MMMMMMM\soft\V44_asV34\Debug\Algorithm.obj"
_Last2Catcnt                                             6D0       "D:\Prj_GPCE3400\ZMM001A(EN)_MMMMMMM\soft\V44_asV34\Debug\Algorithm.obj"
_Timeout_cnt_En                                          6D1       "D:\Prj_GPCE3400\ZMM001A(EN)_MMMMMMM\soft\V44_asV34\Debug\Algorithm.obj"
_Event_F                                                 6D2       "D:\Prj_GPCE3400\ZMM001A(EN)_MMMMMMM\soft\V44_asV34\Debug\Algorithm.obj"
_LFX_Data                                                6EA       "D:\Prj_GPCE3400\ZMM001A(EN)_MMMMMMM\soft\V44_asV34\Debug\Algorithm.obj"
_Led_Data_Play                                           20190A    "D:\Prj_GPCE3400\ZMM001A(EN)_MMMMMMM\soft\V44_asV34\Debug\Algorithm.obj"
_BitMap                                                  20190F    "D:\Prj_GPCE3400\ZMM001A(EN)_MMMMMMM\soft\V44_asV34\Debug\Algorithm.obj"
_Get_Question_Category                                   205C0E    "D:\Prj_GPCE3400\ZMM001A(EN)_MMMMMMM\soft\V44_asV34\Debug\Algorithm.obj"
_Get_Question_Sound                                      205C23    "D:\Prj_GPCE3400\ZMM001A(EN)_MMMMMMM\soft\V44_asV34\Debug\Algorithm.obj"
_Get_Question_Mode                                       205C39    "D:\Prj_GPCE3400\ZMM001A(EN)_MMMMMMM\soft\V44_asV34\Debug\Algorithm.obj"
_GetQuality                                              205C3D    "D:\Prj_GPCE3400\ZMM001A(EN)_MMMMMMM\soft\V44_asV34\Debug\Algorithm.obj"
_GetSwitch                                               205C52    "D:\Prj_GPCE3400\ZMM001A(EN)_MMMMMMM\soft\V44_asV34\Debug\Algorithm.obj"
_GetDifficulty                                           205C67    "D:\Prj_GPCE3400\ZMM001A(EN)_MMMMMMM\soft\V44_asV34\Debug\Algorithm.obj"
_GetMovies                                               205C7C    "D:\Prj_GPCE3400\ZMM001A(EN)_MMMMMMM\soft\V44_asV34\Debug\Algorithm.obj"
_delay_time                                              205C92    "D:\Prj_GPCE3400\ZMM001A(EN)_MMMMMMM\soft\V44_asV34\Debug\Algorithm.obj"
_Get_LQA                                                 205CA8    "D:\Prj_GPCE3400\ZMM001A(EN)_MMMMMMM\soft\V44_asV34\Debug\Algorithm.obj"
_Get_LQ                                                  205CDA    "D:\Prj_GPCE3400\ZMM001A(EN)_MMMMMMM\soft\V44_asV34\Debug\Algorithm.obj"
_Get_Length_Pingame                                      205D0C    "D:\Prj_GPCE3400\ZMM001A(EN)_MMMMMMM\soft\V44_asV34\Debug\Algorithm.obj"
_Select_Pingamerandom_4                                  205D3E    "D:\Prj_GPCE3400\ZMM001A(EN)_MMMMMMM\soft\V44_asV34\Debug\Algorithm.obj"
_SelectNextPingame                                       205D79    "D:\Prj_GPCE3400\ZMM001A(EN)_MMMMMMM\soft\V44_asV34\Debug\Algorithm.obj"
_Select_Pingamerandom                                    205DC0    "D:\Prj_GPCE3400\ZMM001A(EN)_MMMMMMM\soft\V44_asV34\Debug\Algorithm.obj"
_Supress_Question_Switch                                 205EDA    "D:\Prj_GPCE3400\ZMM001A(EN)_MMMMMMM\soft\V44_asV34\Debug\Algorithm.obj"
_Supress_Question_CategoryLast2C                         205F4A    "D:\Prj_GPCE3400\ZMM001A(EN)_MMMMMMM\soft\V44_asV34\Debug\Algorithm.obj"
_Select_Questionrandom_4                                 205FD1    "D:\Prj_GPCE3400\ZMM001A(EN)_MMMMMMM\soft\V44_asV34\Debug\Algorithm.obj"
_Select_Question_ModeStatus_Othe                         20600C    "D:\Prj_GPCE3400\ZMM001A(EN)_MMMMMMM\soft\V44_asV34\Debug\Algorithm.obj"
_GameTimeout                                             206094    "D:\Prj_GPCE3400\ZMM001A(EN)_MMMMMMM\soft\V44_asV34\Debug\Algorithm.obj"
_Get_Registered_Player_Num                               2060DA    "D:\Prj_GPCE3400\ZMM001A(EN)_MMMMMMM\soft\V44_asV34\Debug\Algorithm.obj"
_Get_LedDate_From_Play                                   2060FB    "D:\Prj_GPCE3400\ZMM001A(EN)_MMMMMMM\soft\V44_asV34\Debug\Algorithm.obj"
_Get_Firstcnt_From_Play                                  206124    "D:\Prj_GPCE3400\ZMM001A(EN)_MMMMMMM\soft\V44_asV34\Debug\Algorithm.obj"
_Get_FirstBit_From_Play                                  206144    "D:\Prj_GPCE3400\ZMM001A(EN)_MMMMMMM\soft\V44_asV34\Debug\Algorithm.obj"
_Select_Registered_Player_Random                         20616C    "D:\Prj_GPCE3400\ZMM001A(EN)_MMMMMMM\soft\V44_asV34\Debug\Algorithm.obj"
_Save_Question_CategoryMemory                            206196    "D:\Prj_GPCE3400\ZMM001A(EN)_MMMMMMM\soft\V44_asV34\Debug\Algorithm.obj"
_Get_Num_CategoryMemory                                  2061C8    "D:\Prj_GPCE3400\ZMM001A(EN)_MMMMMMM\soft\V44_asV34\Debug\Algorithm.obj"
_Save_Question_Cycle                                     2061E9    "D:\Prj_GPCE3400\ZMM001A(EN)_MMMMMMM\soft\V44_asV34\Debug\Algorithm.obj"
_Get_Num_Bigscore                                        206212    "D:\Prj_GPCE3400\ZMM001A(EN)_MMMMMMM\soft\V44_asV34\Debug\Algorithm.obj"
_Get_All_SameNum                                         20623C    "D:\Prj_GPCE3400\ZMM001A(EN)_MMMMMMM\soft\V44_asV34\Debug\Algorithm.obj"
_Get_Num_Higgest_score                                   206264    "D:\Prj_GPCE3400\ZMM001A(EN)_MMMMMMM\soft\V44_asV34\Debug\Algorithm.obj"
_Get_Num_Lowest_score                                    2062D8    "D:\Prj_GPCE3400\ZMM001A(EN)_MMMMMMM\soft\V44_asV34\Debug\Algorithm.obj"
_checksamescore                                          206357    "D:\Prj_GPCE3400\ZMM001A(EN)_MMMMMMM\soft\V44_asV34\Debug\Algorithm.obj"
_Add_SomePlayer_Point                                    20639A    "D:\Prj_GPCE3400\ZMM001A(EN)_MMMMMMM\soft\V44_asV34\Debug\Algorithm.obj"
_Add_ALL_InactivePlayer_Point                            2063CA    "D:\Prj_GPCE3400\ZMM001A(EN)_MMMMMMM\soft\V44_asV34\Debug\Algorithm.obj"
_Sub_ALL_InactivePlayer_Point                            2063FC    "D:\Prj_GPCE3400\ZMM001A(EN)_MMMMMMM\soft\V44_asV34\Debug\Algorithm.obj"
_PlayScores                                              206453    "D:\Prj_GPCE3400\ZMM001A(EN)_MMMMMMM\soft\V44_asV34\Debug\Algorithm.obj"
_Play_Activeplayer                                       206480    "D:\Prj_GPCE3400\ZMM001A(EN)_MMMMMMM\soft\V44_asV34\Debug\Algorithm.obj"
_Play_Serieplayer                                        2064B9    "D:\Prj_GPCE3400\ZMM001A(EN)_MMMMMMM\soft\V44_asV34\Debug\Algorithm.obj"
_Play_Serieplayer16bit                                   2064EE    "D:\Prj_GPCE3400\ZMM001A(EN)_MMMMMMM\soft\V44_asV34\Debug\Algorithm.obj"
_Tell_Scores                                             206516    "D:\Prj_GPCE3400\ZMM001A(EN)_MMMMMMM\soft\V44_asV34\Debug\Algorithm.obj"
_Key_CheckScores                                         2065EF    "D:\Prj_GPCE3400\ZMM001A(EN)_MMMMMMM\soft\V44_asV34\Debug\Algorithm.obj"
_Sub_QuestionAsked                                       20663F    "D:\Prj_GPCE3400\ZMM001A(EN)_MMMMMMM\soft\V44_asV34\Debug\Algorithm.obj"
_Reset_Pselected                                         206696    "D:\Prj_GPCE3400\ZMM001A(EN)_MMMMMMM\soft\V44_asV34\Debug\Algorithm.obj"
_Rest_LQ_LQA                                             2066AF    "D:\Prj_GPCE3400\ZMM001A(EN)_MMMMMMM\soft\V44_asV34\Debug\Algorithm.obj"
_Rest_LQA                                                206701    "D:\Prj_GPCE3400\ZMM001A(EN)_MMMMMMM\soft\V44_asV34\Debug\Algorithm.obj"
_Rest_Question_Asked                                     206722    "D:\Prj_GPCE3400\ZMM001A(EN)_MMMMMMM\soft\V44_asV34\Debug\Algorithm.obj"
_Check_LQA                                               206762    "D:\Prj_GPCE3400\ZMM001A(EN)_MMMMMMM\soft\V44_asV34\Debug\Algorithm.obj"
_Read_Flash                                              206810    "D:\Prj_GPCE3400\ZMM001A(EN)_MMMMMMM\soft\V44_asV34\Debug\Algorithm.obj"
_Save_Question_Quality_Last                              206862    "D:\Prj_GPCE3400\ZMM001A(EN)_MMMMMMM\soft\V44_asV34\Debug\Algorithm.obj"
_Save_Question_Category2Last                             20688B    "D:\Prj_GPCE3400\ZMM001A(EN)_MMMMMMM\soft\V44_asV34\Debug\Algorithm.obj"
_check_Question_Quality_Last                             20689C    "D:\Prj_GPCE3400\ZMM001A(EN)_MMMMMMM\soft\V44_asV34\Debug\Algorithm.obj"
_Get_Key                                                 2068BA    "D:\Prj_GPCE3400\ZMM001A(EN)_MMMMMMM\soft\V44_asV34\Debug\Algorithm.obj"
_Ask_Question                                            206AE3    "D:\Prj_GPCE3400\ZMM001A(EN)_MMMMMMM\soft\V44_asV34\Debug\Algorithm.obj"
_Questions_init                                          206BFB    "D:\Prj_GPCE3400\ZMM001A(EN)_MMMMMMM\soft\V44_asV34\Debug\Algorithm.obj"
_NewgameInit                                             206C1E    "D:\Prj_GPCE3400\ZMM001A(EN)_MMMMMMM\soft\V44_asV34\Debug\Algorithm.obj"
_Ram_OnInit                                              206C3E    "D:\Prj_GPCE3400\ZMM001A(EN)_MMMMMMM\soft\V44_asV34\Debug\Algorithm.obj"
_Reset_Memory                                            206C73    "D:\Prj_GPCE3400\ZMM001A(EN)_MMMMMMM\soft\V44_asV34\Debug\Algorithm.obj"
_SetPingame                                              206C8D    "D:\Prj_GPCE3400\ZMM001A(EN)_MMMMMMM\soft\V44_asV34\Debug\Algorithm.obj"
_Step1                                                   206CD7    "D:\Prj_GPCE3400\ZMM001A(EN)_MMMMMMM\soft\V44_asV34\Debug\Algorithm.obj"
_Select_Sound                                            20712E    "D:\Prj_GPCE3400\ZMM001A(EN)_MMMMMMM\soft\V44_asV34\Debug\Algorithm.obj"
_Events                                                  207288    "D:\Prj_GPCE3400\ZMM001A(EN)_MMMMMMM\soft\V44_asV34\Debug\Algorithm.obj"
_Game                                                    2072D3    "D:\Prj_GPCE3400\ZMM001A(EN)_MMMMMMM\soft\V44_asV34\Debug\Algorithm.obj"
_Answer_F                                                2073C7    "D:\Prj_GPCE3400\ZMM001A(EN)_MMMMMMM\soft\V44_asV34\Debug\Algorithm.obj"
_PlayScoreOfwhichplay                                    207759    "D:\Prj_GPCE3400\ZMM001A(EN)_MMMMMMM\soft\V44_asV34\Debug\Algorithm.obj"
_End                                                     20776C    "D:\Prj_GPCE3400\ZMM001A(EN)_MMMMMMM\soft\V44_asV34\Debug\Algorithm.obj"
_Go_Rest                                                 207BC5    "D:\Prj_GPCE3400\ZMM001A(EN)_MMMMMMM\soft\V44_asV34\Debug\Algorithm.obj"
_Sleeping                                                207BED    "D:\Prj_GPCE3400\ZMM001A(EN)_MMMMMMM\soft\V44_asV34\Debug\Algorithm.obj"
_QuestionStatus_LQA                                      6EE       "D:\Prj_GPCE3400\ZMM001A(EN)_MMMMMMM\soft\V44_asV34\Debug\Algorithm.obj"
_QuestionStatus_LQ                                       702       "D:\Prj_GPCE3400\ZMM001A(EN)_MMMMMMM\soft\V44_asV34\Debug\Algorithm.obj"
_QuestionStatus_Asked                                    716       "D:\Prj_GPCE3400\ZMM001A(EN)_MMMMMMM\soft\V44_asV34\Debug\Algorithm.obj"
_Set_RandomVL_Index                                      2057CB    "D:\Prj_GPCE3400\ZMM001A(EN)_MMMMMMM\soft\V44_asV34\Debug\Play_Speech.obj"
_A1800_Flag                                              5EB       "D:\Prj_GPCE3400\ZMM001A(EN)_MMMMMMM\soft\V44_asV34\Debug\Play_Speech.obj"
_TwoKeyflag                                              5EC       "D:\Prj_GPCE3400\ZMM001A(EN)_MMMMMMM\soft\V44_asV34\Debug\Play_Speech.obj"
_PauseFlag                                               5ED       "D:\Prj_GPCE3400\ZMM001A(EN)_MMMMMMM\soft\V44_asV34\Debug\Play_Speech.obj"
_DAC1_Data_Temp                                          5EE       "D:\Prj_GPCE3400\ZMM001A(EN)_MMMMMMM\soft\V44_asV34\Debug\Play_Speech.obj"
_PlayQuestionflag                                        5EF       "D:\Prj_GPCE3400\ZMM001A(EN)_MMMMMMM\soft\V44_asV34\Debug\Play_Speech.obj"
_CheaterFlag                                             5F0       "D:\Prj_GPCE3400\ZMM001A(EN)_MMMMMMM\soft\V44_asV34\Debug\Play_Speech.obj"
_sp_offset                                               5F1       "D:\Prj_GPCE3400\ZMM001A(EN)_MMMMMMM\soft\V44_asV34\Debug\Play_Speech.obj"
_PlayA1800_Other                                         205875    "D:\Prj_GPCE3400\ZMM001A(EN)_MMMMMMM\soft\V44_asV34\Debug\Play_Speech.obj"
_Volume                                                  2058D3    "D:\Prj_GPCE3400\ZMM001A(EN)_MMMMMMM\soft\V44_asV34\Debug\Play_Speech.obj"
_Pause_Process                                           205902    "D:\Prj_GPCE3400\ZMM001A(EN)_MMMMMMM\soft\V44_asV34\Debug\Play_Speech.obj"
_PlayA1800_ElementsInit                                  205A12    "D:\Prj_GPCE3400\ZMM001A(EN)_MMMMMMM\soft\V44_asV34\Debug\Play_Speech.obj"
_PlayA1800_Elements                                      205A75    "D:\Prj_GPCE3400\ZMM001A(EN)_MMMMMMM\soft\V44_asV34\Debug\Play_Speech.obj"
_Play_Seq                                                205B26    "D:\Prj_GPCE3400\ZMM001A(EN)_MMMMMMM\soft\V44_asV34\Debug\Play_Speech.obj"
_PlayA1800_Question                                      205B80    "D:\Prj_GPCE3400\ZMM001A(EN)_MMMMMMM\soft\V44_asV34\Debug\Play_Speech.obj"
_Key_Scan_ServiceLoop                                    204B1D    "D:\Prj_GPCE3400\ZMM001A(EN)_MMMMMMM\soft\V44_asV34\Debug\Key_server.obj"
_Key                                                     5C4       "D:\Prj_GPCE3400\ZMM001A(EN)_MMMMMMM\soft\V44_asV34\Debug\Key_server.obj"
_Pressflag                                               5C6       "D:\Prj_GPCE3400\ZMM001A(EN)_MMMMMMM\soft\V44_asV34\Debug\Key_server.obj"
_LongPressflag                                           5C7       "D:\Prj_GPCE3400\ZMM001A(EN)_MMMMMMM\soft\V44_asV34\Debug\Key_server.obj"
_Key_Scan_Init                                           204AFB    "D:\Prj_GPCE3400\ZMM001A(EN)_MMMMMMM\soft\V44_asV34\Debug\Key_server.obj"
_Key_Scan_Init_Wakeup                                    204B0C    "D:\Prj_GPCE3400\ZMM001A(EN)_MMMMMMM\soft\V44_asV34\Debug\Key_server.obj"
_Delay_Xms_PowerOn                                       204CC8    "D:\Prj_GPCE3400\ZMM001A(EN)_MMMMMMM\soft\V44_asV34\Debug\Sleep.obj"
_GetMode                                                 204CE1    "D:\Prj_GPCE3400\ZMM001A(EN)_MMMMMMM\soft\V44_asV34\Debug\Sleep.obj"
_Goto_Sleep                                              204D63    "D:\Prj_GPCE3400\ZMM001A(EN)_MMMMMMM\soft\V44_asV34\Debug\Sleep.obj"
_CheckSum_SPIFlash                                       20498D    "D:\Prj_GPCE3400\ZMM001A(EN)_MMMMMMM\soft\V44_asV34\Debug\CheckSum_CE3400.obj"
_TestMic0                                                2049E4    "D:\Prj_GPCE3400\ZMM001A(EN)_MMMMMMM\soft\V44_asV34\Debug\CheckSum_CE3400.obj"
_Delay1xms                                               204936    "D:\Prj_GPCE3400\ZMM001A(EN)_MMMMMMM\soft\V44_asV34\Debug\TestBondingC.obj"
_Beep_Along                                              204954    "D:\Prj_GPCE3400\ZMM001A(EN)_MMMMMMM\soft\V44_asV34\Debug\TestBondingC.obj"
_BeepBeep_Along                                          204969    "D:\Prj_GPCE3400\ZMM001A(EN)_MMMMMMM\soft\V44_asV34\Debug\TestBondingC.obj"
_Init_LED                                                204B87    "D:\Prj_GPCE3400\ZMM001A(EN)_MMMMMMM\soft\V44_asV34\Debug\LED.obj"
_LED_Cnt                                                 5E6       "D:\Prj_GPCE3400\ZMM001A(EN)_MMMMMMM\soft\V44_asV34\Debug\LED.obj"
_LED_Control                                             204BAF    "D:\Prj_GPCE3400\ZMM001A(EN)_MMMMMMM\soft\V44_asV34\Debug\LED.obj"
_Led_ON_Some                                             204BF3    "D:\Prj_GPCE3400\ZMM001A(EN)_MMMMMMM\soft\V44_asV34\Debug\LED.obj"
_Led_OFF_Some                                            204C02    "D:\Prj_GPCE3400\ZMM001A(EN)_MMMMMMM\soft\V44_asV34\Debug\LED.obj"
_AntiCrackFun                                            2048E8    "D:\Prj_GPCE3400\ZMM001A(EN)_MMMMMMM\soft\V44_asV34\Debug\AntiCrack.obj"
_T_Scr                                                   201928    "D:\Prj_GPCE3400\ZMM001A(EN)_MMMMMMM\soft\V44_asV34\Debug\AntiCrack.obj"
_T_Szjt_enc                                              201929    "D:\Prj_GPCE3400\ZMM001A(EN)_MMMMMMM\soft\V44_asV34\Debug\AntiCrack.obj"
_T_Yutong_enc                                            20192A    "D:\Prj_GPCE3400\ZMM001A(EN)_MMMMMMM\soft\V44_asV34\Debug\AntiCrack.obj"
_R_WrongICflag                                           5E7       "D:\Prj_GPCE3400\ZMM001A(EN)_MMMMMMM\soft\V44_asV34\Debug\AntiCrack.obj"
_SPI_Flash_ReadAWord                                     77        "D:\Prj_GPCE3400\ZMM001A(EN)_MMMMMMM\soft\V44_asV34\Debug\SPI_Flash_CE3.obj"
F_SPI_Flash_ReadAWord                                    7B        "D:\Prj_GPCE3400\ZMM001A(EN)_MMMMMMM\soft\V44_asV34\Debug\SPI_Flash_CE3.obj"
_SPI_Flash_ReadNWords                                    B8        "D:\Prj_GPCE3400\ZMM001A(EN)_MMMMMMM\soft\V44_asV34\Debug\SPI_Flash_CE3.obj"
F_SPI_Flash_ReadNWords                                   BF        "D:\Prj_GPCE3400\ZMM001A(EN)_MMMMMMM\soft\V44_asV34\Debug\SPI_Flash_CE3.obj"
_SPI_Flash_SendAWord                                     FF        "D:\Prj_GPCE3400\ZMM001A(EN)_MMMMMMM\soft\V44_asV34\Debug\SPI_Flash_CE3.obj"
F_SPI_Flash_SendAWord                                    104       "D:\Prj_GPCE3400\ZMM001A(EN)_MMMMMMM\soft\V44_asV34\Debug\SPI_Flash_CE3.obj"
_SPI_Flash_SendNWords                                    142       "D:\Prj_GPCE3400\ZMM001A(EN)_MMMMMMM\soft\V44_asV34\Debug\SPI_Flash_CE3.obj"
F_SPI_Flash_SendNWords                                   149       "D:\Prj_GPCE3400\ZMM001A(EN)_MMMMMMM\soft\V44_asV34\Debug\SPI_Flash_CE3.obj"
_SPI_Flash_Read_Status_Register                          199       "D:\Prj_GPCE3400\ZMM001A(EN)_MMMMMMM\soft\V44_asV34\Debug\SPI_Flash_CE3.obj"
F_SPI_Flash_Read_Status_Register                         199       "D:\Prj_GPCE3400\ZMM001A(EN)_MMMMMMM\soft\V44_asV34\Debug\SPI_Flash_CE3.obj"
_SPI_Flash_Read_Status_Reg3                              1D6       "D:\Prj_GPCE3400\ZMM001A(EN)_MMMMMMM\soft\V44_asV34\Debug\SPI_Flash_CE3.obj"
F_SPI_Flash_Read_Status_Reg3                             1D6       "D:\Prj_GPCE3400\ZMM001A(EN)_MMMMMMM\soft\V44_asV34\Debug\SPI_Flash_CE3.obj"
_SPI_Flash_Write_Status_Register                         1FC       "D:\Prj_GPCE3400\ZMM001A(EN)_MMMMMMM\soft\V44_asV34\Debug\SPI_Flash_CE3.obj"
F_SPI_Flash_Write_Status_Registe                         1FF       "D:\Prj_GPCE3400\ZMM001A(EN)_MMMMMMM\soft\V44_asV34\Debug\SPI_Flash_CE3.obj"
_SPI_Flash_Write_Status_Reg3                             250       "D:\Prj_GPCE3400\ZMM001A(EN)_MMMMMMM\soft\V44_asV34\Debug\SPI_Flash_CE3.obj"
F_SPI_Flash_Write_Status_Reg3                            253       "D:\Prj_GPCE3400\ZMM001A(EN)_MMMMMMM\soft\V44_asV34\Debug\SPI_Flash_CE3.obj"
_SPI_Flash_Read_Configuration_Re                         2EE       "D:\Prj_GPCE3400\ZMM001A(EN)_MMMMMMM\soft\V44_asV34\Debug\SPI_Flash_CE3.obj"
F_SPI_Flash_Read_Configuration_R                         2EE       "D:\Prj_GPCE3400\ZMM001A(EN)_MMMMMMM\soft\V44_asV34\Debug\SPI_Flash_CE3.obj"
_SPI_Flash_Block_Erase                                   27C       "D:\Prj_GPCE3400\ZMM001A(EN)_MMMMMMM\soft\V44_asV34\Debug\SPI_Flash_CE3.obj"
F_SPI_Flash_Block_Erase                                  27F       "D:\Prj_GPCE3400\ZMM001A(EN)_MMMMMMM\soft\V44_asV34\Debug\SPI_Flash_CE3.obj"
_SPI_Flash_Sector_Erase                                  2B6       "D:\Prj_GPCE3400\ZMM001A(EN)_MMMMMMM\soft\V44_asV34\Debug\SPI_Flash_CE3.obj"
F_SPI_Flash_Sector_Erase                                 2BA       "D:\Prj_GPCE3400\ZMM001A(EN)_MMMMMMM\soft\V44_asV34\Debug\SPI_Flash_CE3.obj"
_SPI_Flash_Read_UniqueID                                 2EE       "D:\Prj_GPCE3400\ZMM001A(EN)_MMMMMMM\soft\V44_asV34\Debug\SPI_Flash_CE3.obj"
F_SPI_Flash_Read_UniqueID                                2EE       "D:\Prj_GPCE3400\ZMM001A(EN)_MMMMMMM\soft\V44_asV34\Debug\SPI_Flash_CE3.obj"
_MoveSPIDriverToRAM                                      204AED    "D:\Prj_GPCE3400\ZMM001A(EN)_MMMMMMM\soft\V44_asV34\Debug\SPI_Flash_CE3.obj"
F_MoveSPIDriverToRAM                                     204AED    "D:\Prj_GPCE3400\ZMM001A(EN)_MMMMMMM\soft\V44_asV34\Debug\SPI_Flash_CE3.obj"
R_CTS_Sum                                                5CD       "D:\Prj_GPCE3400\ZMM001A(EN)_MMMMMMM\soft\V44_asV34\Debug\CTS_Sensor.obj"
R_CTS_Reference                                          5D1       "D:\Prj_GPCE3400\ZMM001A(EN)_MMMMMMM\soft\V44_asV34\Debug\CTS_Sensor.obj"
R_CTS_ReferenceL                                         5D5       "D:\Prj_GPCE3400\ZMM001A(EN)_MMMMMMM\soft\V44_asV34\Debug\CTS_Sensor.obj"
R_CTS_ScanNo                                             5D9       "D:\Prj_GPCE3400\ZMM001A(EN)_MMMMMMM\soft\V44_asV34\Debug\CTS_Sensor.obj"
R_CTS_Schmitt_H                                          5DD       "D:\Prj_GPCE3400\ZMM001A(EN)_MMMMMMM\soft\V44_asV34\Debug\CTS_Sensor.obj"
R_CTS_Schmitt_L                                          5E1       "D:\Prj_GPCE3400\ZMM001A(EN)_MMMMMMM\soft\V44_asV34\Debug\CTS_Sensor.obj"
T_CTS_TouchInfo                                          20381B    "D:\Prj_GPCE3400\ZMM001A(EN)_MMMMMMM\soft\V44_asV34\Debug\CTS_Sensor.obj"
T_CTS_SchmittH                                           203822    "D:\Prj_GPCE3400\ZMM001A(EN)_MMMMMMM\soft\V44_asV34\Debug\CTS_Sensor.obj"
T_CTS_SchmittL                                           203824    "D:\Prj_GPCE3400\ZMM001A(EN)_MMMMMMM\soft\V44_asV34\Debug\CTS_Sensor.obj"
F_CTS_User_Init                                          2038C6    "D:\Prj_GPCE3400\ZMM001A(EN)_MMMMMMM\soft\V44_asV34\Debug\CTS_Sensor.obj"
_CTS_CH_Sel                                              2038E7    "D:\Prj_GPCE3400\ZMM001A(EN)_MMMMMMM\soft\V44_asV34\Debug\CTS_Sensor.obj"
F_CTS_CH_Sel                                             2038E7    "D:\Prj_GPCE3400\ZMM001A(EN)_MMMMMMM\soft\V44_asV34\Debug\CTS_Sensor.obj"
_CTS_Start                                               2038F5    "D:\Prj_GPCE3400\ZMM001A(EN)_MMMMMMM\soft\V44_asV34\Debug\CTS_Sensor.obj"
F_CTS_Start                                              2038F5    "D:\Prj_GPCE3400\ZMM001A(EN)_MMMMMMM\soft\V44_asV34\Debug\CTS_Sensor.obj"
F_CTS_ScanOneRound                                       20392C    "D:\Prj_GPCE3400\ZMM001A(EN)_MMMMMMM\soft\V44_asV34\Debug\CTS_Sensor.obj"
F_CTS_Get_SchmittH                                       203916    "D:\Prj_GPCE3400\ZMM001A(EN)_MMMMMMM\soft\V44_asV34\Debug\CTS_Sensor.obj"
F_CTS_Get_SchmittL                                       203921    "D:\Prj_GPCE3400\ZMM001A(EN)_MMMMMMM\soft\V44_asV34\Debug\CTS_Sensor.obj"
F_CTS_GetScanTime                                        20392D    "D:\Prj_GPCE3400\ZMM001A(EN)_MMMMMMM\soft\V44_asV34\Debug\CTS_Sensor.obj"
_Init_CTS                                                20398D    "D:\Prj_GPCE3400\ZMM001A(EN)_MMMMMMM\soft\V44_asV34\Debug\CTS_User.obj"
_TS_CTS_ServiceLoop                                      2039A7    "D:\Prj_GPCE3400\ZMM001A(EN)_MMMMMMM\soft\V44_asV34\Debug\CTS_User.obj"
_TriggeredPad                                            5E9       "D:\Prj_GPCE3400\ZMM001A(EN)_MMMMMMM\soft\V44_asV34\Debug\CTS_User.obj"
_PreCtsResult                                            5EA       "D:\Prj_GPCE3400\ZMM001A(EN)_MMMMMMM\soft\V44_asV34\Debug\CTS_User.obj"
__RES_ROM_ZMM_V03_BIN_sa                                 207C84    "D:\Prj_GPCE3400\ZMM001A(EN)_MMMMMMM\soft\V44_asV34\Debug\Rom_ZMM_V03_bin.res"
__RES_ROM_ZMM_V03_BIN_ea                                 26C8F3    "D:\Prj_GPCE3400\ZMM001A(EN)_MMMMMMM\soft\V44_asV34\Debug\Rom_ZMM_V03_bin.res"
***********************************************************************************************************************************************************************************************************************************************************************************************************

***********************************************************************************************************************************************************************************************************************************************************************************************************
*                             S E C T I O N     S U M M A R Y                                                                                                                                                                                                                                             *
***********************************************************************************************************************************************************************************************************************************************************************************************************
*     Section Name                                       Startting Address   Ending Address      Size                                                                                                                                                                                                     *
***********************************************************************************************************************************************************************************************************************************************************************************************************
* "D:\Prj_GPCE3400\ZMM001A(EN)_MMMMMMM\soft\V44_asV34\Debug\main.obj"                                                                                                                                                                                                                                     *
*    DEBUG                                               ----                ----                ----                                                                                                                                                                                                     *
*    _CODE_SPI_SEC(CODE)                                 205621              2057CA              1AA                                                                                                                                                                                                      *
*    _DATA_SPI_SEC(DATA)                                 ----                ----                ----                                                                                                                                                                                                     *
*    TEXT                                                ----                ----                ----                                                                                                                                                                                                     *
*    IRAM                                                203504(5F2)         20350C(5FA)         9                                                                                                                                                                                                        *
*    ISRAM                                               ----                ----                ----                                                                                                                                                                                                     *
*    RAM                                                 ----                ----                ----                                                                                                                                                                                                     *
*    SRAM                                                ----                ----                ----                                                                                                                                                                                                     *
*    ORAM                                                ----                ----                ----                                                                                                                                                                                                     *
*    OSRAM                                               ----                ----                ----                                                                                                                                                                                                     *
*    NB_DATA                                             ----                ----                ----                                                                                                                                                                                                     *
*    CTOR                                                ----                ----                ----                                                                                                                                                                                                     *
*    DTOR                                                ----                ----                ----                                                                                                                                                                                                     *
*    IM                                                  ----                ----                ----                                                                                                                                                                                                     *
*    LINKONCE                                            ----                ----                ----                                                                                                                                                                                                     *
*    VTBL                                                ----                ----                ----                                                                                                                                                                                                     *
*    NB_MERGE                                            ----                ----                ----                                                                                                                                                                                                     *
*    RAM_BANK0                                           ----                ----                ----                                                                                                                                                                                                     *
*    IRAM_BANK0                                          ----                ----                ----                                                                                                                                                                                                     *
*    ORAM_BANK0                                          ----                ----                ----                                                                                                                                                                                                     *
* "D:\Prj_GPCE3400\ZMM001A(EN)_MMMMMMM\soft\V44_asV34\Debug\isr.obj"                                                                                                                                                                                                                                      *
*    DEBUG                                               ----                ----                ----                                                                                                                                                                                                     *
*    _CODE_SPI_SEC(CODE)                                 204C14              204CC7              B4                                                                                                                                                                                                       *
*    _DATA_SPI_SEC(DATA)                                 ----                ----                ----                                                                                                                                                                                                     *
*    TEXT                                                ----                ----                ----                                                                                                                                                                                                     *
*    IRAM                                                ----                ----                ----                                                                                                                                                                                                     *
*    ISRAM                                               ----                ----                ----                                                                                                                                                                                                     *
*    RAM                                                 ----                ----                ----                                                                                                                                                                                                     *
*    SRAM                                                ----                ----                ----                                                                                                                                                                                                     *
*    ORAM                                                ----                ----                ----                                                                                                                                                                                                     *
*    OSRAM                                               ----                ----                ----                                                                                                                                                                                                     *
*    NB_DATA                                             ----                ----                ----                                                                                                                                                                                                     *
*    CTOR                                                ----                ----                ----                                                                                                                                                                                                     *
*    DTOR                                                ----                ----                ----                                                                                                                                                                                                     *
*    IM                                                  ----                ----                ----                                                                                                                                                                                                     *
*    LINKONCE                                            ----                ----                ----                                                                                                                                                                                                     *
*    VTBL                                                ----                ----                ----                                                                                                                                                                                                     *
*    NB_MERGE                                            ----                ----                ----                                                                                                                                                                                                     *
*    RAM_BANK0                                           ----                ----                ----                                                                                                                                                                                                     *
*    IRAM_BANK0                                          ----                ----                ----                                                                                                                                                                                                     *
*    ORAM_BANK0                                          ----                ----                ----                                                                                                                                                                                                     *
* "D:\Prj_GPCE3400\ZMM001A(EN)_MMMMMMM\soft\V44_asV34\Debug\Resource.obj"                                                                                                                                                                                                                                 *
*    DEBUG                                               ----                ----                ----                                                                                                                                                                                                     *
*    _CODE_SPI_SEC(CODE)                                 204800              204803              4                                                                                                                                                                                                        *
*    _DATA_SPI_SEC(DATA)                                 ----                ----                ----                                                                                                                                                                                                     *
*    TEXT                                                ----                ----                ----                                                                                                                                                                                                     *
*    IRAM                                                ----                ----                ----                                                                                                                                                                                                     *
*    ISRAM                                               ----                ----                ----                                                                                                                                                                                                     *
*    RAM                                                 ----                ----                ----                                                                                                                                                                                                     *
*    SRAM                                                ----                ----                ----                                                                                                                                                                                                     *
*    ORAM                                                ----                ----                ----                                                                                                                                                                                                     *
*    OSRAM                                               ----                ----                ----                                                                                                                                                                                                     *
*    NB_DATA                                             ----                ----                ----                                                                                                                                                                                                     *
*    CTOR                                                ----                ----                ----                                                                                                                                                                                                     *
*    DTOR                                                ----                ----                ----                                                                                                                                                                                                     *
*    IM                                                  ----                ----                ----                                                                                                                                                                                                     *
*    LINKONCE                                            ----                ----                ----                                                                                                                                                                                                     *
*    VTBL                                                ----                ----                ----                                                                                                                                                                                                     *
*    NB_MERGE                                            ----                ----                ----                                                                                                                                                                                                     *
*    RAM_BANK0                                           ----                ----                ----                                                                                                                                                                                                     *
*    IRAM_BANK0                                          ----                ----                ----                                                                                                                                                                                                     *
*    ORAM_BANK0                                          ----                ----                ----                                                                                                                                                                                                     *
* "D:\Prj_GPCE3400\ZMM001A(EN)_MMMMMMM\soft\V44_asV34\Debug\BootCode_User.obj"                                                                                                                                                                                                                            *
*    DEBUG                                               ----                ----                ----                                                                                                                                                                                                     *
*    _CODE_SPI_SEC(CODE)                                 2048A5              2048E7              43                                                                                                                                                                                                       *
*    _DATA_SPI_SEC(DATA)                                 ----                ----                ----                                                                                                                                                                                                     *
*    TEXT                                                ----                ----                ----                                                                                                                                                                                                     *
*    IRAM                                                ----                ----                ----                                                                                                                                                                                                     *
*    ISRAM                                               ----                ----                ----                                                                                                                                                                                                     *
*    RAM                                                 ----                ----                ----                                                                                                                                                                                                     *
*    SRAM                                                ----                ----                ----                                                                                                                                                                                                     *
*    ORAM                                                ----                ----                ----                                                                                                                                                                                                     *
*    OSRAM                                               ----                ----                ----                                                                                                                                                                                                     *
*    NB_DATA                                             ----                ----                ----                                                                                                                                                                                                     *
*    CTOR                                                ----                ----                ----                                                                                                                                                                                                     *
*    DTOR                                                ----                ----                ----                                                                                                                                                                                                     *
*    IM                                                  ----                ----                ----                                                                                                                                                                                                     *
*    LINKONCE                                            ----                ----                ----                                                                                                                                                                                                     *
*    VTBL                                                ----                ----                ----                                                                                                                                                                                                     *
*    NB_MERGE                                            ----                ----                ----                                                                                                                                                                                                     *
*    RAM_BANK0                                           ----                ----                ----                                                                                                                                                                                                     *
*    IRAM_BANK0                                          ----                ----                ----                                                                                                                                                                                                     *
*    ORAM_BANK0                                          ----                ----                ----                                                                                                                                                                                                     *
*    BootCode_SEC(CODE)                                  200100(100)         20038D(38D)         28E                                                                                                                                                                                                      *
* "D:\Prj_GPCE3400\ZMM001A(EN)_MMMMMMM\soft\V44_asV34\Debug\ORAM_Arrangement.obj"                                                                                                                                                                                                                         *
*    DEBUG                                               ----                ----                ----                                                                                                                                                                                                     *
*    _CODE_SPI_SEC(CODE)                                 ----                ----                ----                                                                                                                                                                                                     *
*    _DATA_SPI_SEC(DATA)                                 ----                ----                ----                                                                                                                                                                                                     *
*    TEXT                                                ----                ----                ----                                                                                                                                                                                                     *
*    IRAM                                                ----                ----                ----                                                                                                                                                                                                     *
*    ISRAM                                               ----                ----                ----                                                                                                                                                                                                     *
*    RAM                                                 ----                ----                ----                                                                                                                                                                                                     *
*    SRAM                                                ----                ----                ----                                                                                                                                                                                                     *
*    ORAM                                                ----                ----                ----                                                                                                                                                                                                     *
*    OSRAM                                               ----                ----                ----                                                                                                                                                                                                     *
*    NB_DATA                                             ----                ----                ----                                                                                                                                                                                                     *
*    CTOR                                                ----                ----                ----                                                                                                                                                                                                     *
*    DTOR                                                ----                ----                ----                                                                                                                                                                                                     *
*    IM                                                  ----                ----                ----                                                                                                                                                                                                     *
*    LINKONCE                                            ----                ----                ----                                                                                                                                                                                                     *
*    VTBL                                                ----                ----                ----                                                                                                                                                                                                     *
*    NB_MERGE                                            ----                ----                ----                                                                                                                                                                                                     *
*    RAM_BANK0                                           ----                ----                ----                                                                                                                                                                                                     *
*    IRAM_BANK0                                          ----                ----                ----                                                                                                                                                                                                     *
*    ORAM_BANK0                                          ----                ----                ----                                                                                                                                                                                                     *
*    OVERLAP_A3400Pro_BLOCK(ORAM)                        10                  29                  1A                                                                                                                                                                                                       *
*    OVERLAP_A1800_BLOCK(ORAM)                           2A                  598                 56F                                                                                                                                                                                                      *
* "D:\Prj_GPCE3400\ZMM001A(EN)_MMMMMMM\soft\V44_asV34\Debug\SACM_A1800_User.obj"                                                                                                                                                                                                                          *
*    DEBUG                                               ----                ----                ----                                                                                                                                                                                                     *
*    _CODE_SPI_SEC(CODE)                                 204839              20486E              36                                                                                                                                                                                                       *
*    _DATA_SPI_SEC(DATA)                                 ----                ----                ----                                                                                                                                                                                                     *
*    TEXT                                                ----                ----                ----                                                                                                                                                                                                     *
*    IRAM                                                ----                ----                ----                                                                                                                                                                                                     *
*    ISRAM                                               ----                ----                ----                                                                                                                                                                                                     *
*    RAM                                                 5B0                 5B4                 5                                                                                                                                                                                                        *
*    SRAM                                                ----                ----                ----                                                                                                                                                                                                     *
*    ORAM                                                ----                ----                ----                                                                                                                                                                                                     *
*    OSRAM                                               ----                ----                ----                                                                                                                                                                                                     *
*    NB_DATA                                             ----                ----                ----                                                                                                                                                                                                     *
*    CTOR                                                ----                ----                ----                                                                                                                                                                                                     *
*    DTOR                                                ----                ----                ----                                                                                                                                                                                                     *
*    IM                                                  ----                ----                ----                                                                                                                                                                                                     *
*    LINKONCE                                            ----                ----                ----                                                                                                                                                                                                     *
*    VTBL                                                ----                ----                ----                                                                                                                                                                                                     *
*    NB_MERGE                                            ----                ----                ----                                                                                                                                                                                                     *
*    RAM_BANK0                                           ----                ----                ----                                                                                                                                                                                                     *
*    IRAM_BANK0                                          ----                ----                ----                                                                                                                                                                                                     *
*    ORAM_BANK0                                          ----                ----                ----                                                                                                                                                                                                     *
*    L_A1800_SendDAC_SEC(CODE)                           2050C0              20518F              D0                                                                                                                                                                                                       *
*    A1800_LibCallback_SEC(CODE)                         201880              2018F1              72                                                                                                                                                                                                       *
* "D:\Prj_GPCE3400\ZMM001A(EN)_MMMMMMM\soft\V44_asV34\Debug\system.obj"                                                                                                                                                                                                                                   *
*    DEBUG                                               ----                ----                ----                                                                                                                                                                                                     *
*    _CODE_SPI_SEC(CODE)                                 204EA2              204FED              14C                                                                                                                                                                                                      *
*    _DATA_SPI_SEC(DATA)                                 ----                ----                ----                                                                                                                                                                                                     *
*    TEXT                                                ----                ----                ----                                                                                                                                                                                                     *
*    IRAM                                                ----                ----                ----                                                                                                                                                                                                     *
*    ISRAM                                               ----                ----                ----                                                                                                                                                                                                     *
*    RAM                                                 5B5                 5B7                 3                                                                                                                                                                                                        *
*    SRAM                                                ----                ----                ----                                                                                                                                                                                                     *
*    ORAM                                                ----                ----                ----                                                                                                                                                                                                     *
*    OSRAM                                               ----                ----                ----                                                                                                                                                                                                     *
*    NB_DATA                                             ----                ----                ----                                                                                                                                                                                                     *
*    CTOR                                                ----                ----                ----                                                                                                                                                                                                     *
*    DTOR                                                ----                ----                ----                                                                                                                                                                                                     *
*    IM                                                  ----                ----                ----                                                                                                                                                                                                     *
*    LINKONCE                                            ----                ----                ----                                                                                                                                                                                                     *
*    VTBL                                                ----                ----                ----                                                                                                                                                                                                     *
*    NB_MERGE                                            ----                ----                ----                                                                                                                                                                                                     *
*    RAM_BANK0                                           ----                ----                ----                                                                                                                                                                                                     *
*    IRAM_BANK0                                          ----                ----                ----                                                                                                                                                                                                     *
*    ORAM_BANK0                                          ----                ----                ----                                                                                                                                                                                                     *
*    L_SW_MuteControl_SEC(CODE)                          205000              205037              38                                                                                                                                                                                                       *
*    RampUpDn_LibCallback_SEC(CODE)                      201920              201927              8                                                                                                                                                                                                        *
* "D:\Prj_GPCE3400\ZMM001A(EN)_MMMMMMM\soft\V44_asV34\Debug\flash.obj"                                                                                                                                                                                                                                    *
*    DEBUG                                               ----                ----                ----                                                                                                                                                                                                     *
*    _CODE_SPI_SEC(CODE)                                 2049F8              204A76              7F                                                                                                                                                                                                       *
*    _DATA_SPI_SEC(DATA)                                 ----                ----                ----                                                                                                                                                                                                     *
*    TEXT                                                ----                ----                ----                                                                                                                                                                                                     *
*    IRAM                                                ----                ----                ----                                                                                                                                                                                                     *
*    ISRAM                                               ----                ----                ----                                                                                                                                                                                                     *
*    RAM                                                 ----                ----                ----                                                                                                                                                                                                     *
*    SRAM                                                ----                ----                ----                                                                                                                                                                                                     *
*    ORAM                                                ----                ----                ----                                                                                                                                                                                                     *
*    OSRAM                                               ----                ----                ----                                                                                                                                                                                                     *
*    NB_DATA                                             ----                ----                ----                                                                                                                                                                                                     *
*    CTOR                                                ----                ----                ----                                                                                                                                                                                                     *
*    DTOR                                                ----                ----                ----                                                                                                                                                                                                     *
*    IM                                                  ----                ----                ----                                                                                                                                                                                                     *
*    LINKONCE                                            ----                ----                ----                                                                                                                                                                                                     *
*    VTBL                                                ----                ----                ----                                                                                                                                                                                                     *
*    NB_MERGE                                            ----                ----                ----                                                                                                                                                                                                     *
*    RAM_BANK0                                           ----                ----                ----                                                                                                                                                                                                     *
*    IRAM_BANK0                                          ----                ----                ----                                                                                                                                                                                                     *
*    ORAM_BANK0                                          ----                ----                ----                                                                                                                                                                                                     *
* "D:\Prj_GPCE3400\ZMM001A(EN)_MMMMMMM\soft\V44_asV34\Debug\Calc.obj"                                                                                                                                                                                                                                     *
*    DEBUG                                               ----                ----                ----                                                                                                                                                                                                     *
*    _CODE_SPI_SEC(CODE)                                 204804              204838              35                                                                                                                                                                                                       *
*    _DATA_SPI_SEC(DATA)                                 ----                ----                ----                                                                                                                                                                                                     *
*    TEXT                                                ----                ----                ----                                                                                                                                                                                                     *
*    IRAM                                                ----                ----                ----                                                                                                                                                                                                     *
*    ISRAM                                               ----                ----                ----                                                                                                                                                                                                     *
*    RAM                                                 ----                ----                ----                                                                                                                                                                                                     *
*    SRAM                                                ----                ----                ----                                                                                                                                                                                                     *
*    ORAM                                                ----                ----                ----                                                                                                                                                                                                     *
*    OSRAM                                               ----                ----                ----                                                                                                                                                                                                     *
*    NB_DATA                                             ----                ----                ----                                                                                                                                                                                                     *
*    CTOR                                                ----                ----                ----                                                                                                                                                                                                     *
*    DTOR                                                ----                ----                ----                                                                                                                                                                                                     *
*    IM                                                  ----                ----                ----                                                                                                                                                                                                     *
*    LINKONCE                                            ----                ----                ----                                                                                                                                                                                                     *
*    VTBL                                                ----                ----                ----                                                                                                                                                                                                     *
*    NB_MERGE                                            ----                ----                ----                                                                                                                                                                                                     *
*    RAM_BANK0                                           ----                ----                ----                                                                                                                                                                                                     *
*    IRAM_BANK0                                          ----                ----                ----                                                                                                                                                                                                     *
*    ORAM_BANK0                                          ----                ----                ----                                                                                                                                                                                                     *
* "D:\Prj_GPCE3400\ZMM001A(EN)_MMMMMMM\soft\V44_asV34\Debug\System_2.obj"                                                                                                                                                                                                                                 *
*    DEBUG                                               ----                ----                ----                                                                                                                                                                                                     *
*    _CODE_SPI_SEC(CODE)                                 204D81              204EA1              121                                                                                                                                                                                                      *
*    _DATA_SPI_SEC(DATA)                                 ----                ----                ----                                                                                                                                                                                                     *
*    TEXT                                                ----                ----                ----                                                                                                                                                                                                     *
*    IRAM                                                ----                ----                ----                                                                                                                                                                                                     *
*    ISRAM                                               ----                ----                ----                                                                                                                                                                                                     *
*    RAM                                                 5B8                 5C1                 A                                                                                                                                                                                                        *
*    SRAM                                                ----                ----                ----                                                                                                                                                                                                     *
*    ORAM                                                ----                ----                ----                                                                                                                                                                                                     *
*    OSRAM                                               ----                ----                ----                                                                                                                                                                                                     *
*    NB_DATA                                             ----                ----                ----                                                                                                                                                                                                     *
*    CTOR                                                ----                ----                ----                                                                                                                                                                                                     *
*    DTOR                                                ----                ----                ----                                                                                                                                                                                                     *
*    IM                                                  ----                ----                ----                                                                                                                                                                                                     *
*    LINKONCE                                            ----                ----                ----                                                                                                                                                                                                     *
*    VTBL                                                ----                ----                ----                                                                                                                                                                                                     *
*    NB_MERGE                                            ----                ----                ----                                                                                                                                                                                                     *
*    RAM_BANK0                                           ----                ----                ----                                                                                                                                                                                                     *
*    IRAM_BANK0                                          ----                ----                ----                                                                                                                                                                                                     *
*    ORAM_BANK0                                          ----                ----                ----                                                                                                                                                                                                     *
*    SleepCode_RAMCode_SEC(CODE)                         205200(10)          2052AB(BB)          AC                                                                                                                                                                                                       *
* "D:\Prj_GPCE3400\ZMM001A(EN)_MMMMMMM\soft\V44_asV34\Debug\LED_Drive.obj"                                                                                                                                                                                                                                *
*    DEBUG                                               ----                ----                ----                                                                                                                                                                                                     *
*    _CODE_SPI_SEC(CODE)                                 20486F              2048A4              36                                                                                                                                                                                                       *
*    _DATA_SPI_SEC(DATA)                                 ----                ----                ----                                                                                                                                                                                                     *
*    TEXT                                                ----                ----                ----                                                                                                                                                                                                     *
*    IRAM                                                ----                ----                ----                                                                                                                                                                                                     *
*    ISRAM                                               ----                ----                ----                                                                                                                                                                                                     *
*    RAM                                                 ----                ----                ----                                                                                                                                                                                                     *
*    SRAM                                                ----                ----                ----                                                                                                                                                                                                     *
*    ORAM                                                ----                ----                ----                                                                                                                                                                                                     *
*    OSRAM                                               ----                ----                ----                                                                                                                                                                                                     *
*    NB_DATA                                             ----                ----                ----                                                                                                                                                                                                     *
*    CTOR                                                ----                ----                ----                                                                                                                                                                                                     *
*    DTOR                                                ----                ----                ----                                                                                                                                                                                                     *
*    IM                                                  ----                ----                ----                                                                                                                                                                                                     *
*    LINKONCE                                            ----                ----                ----                                                                                                                                                                                                     *
*    VTBL                                                ----                ----                ----                                                                                                                                                                                                     *
*    NB_MERGE                                            ----                ----                ----                                                                                                                                                                                                     *
*    RAM_BANK0                                           ----                ----                ----                                                                                                                                                                                                     *
*    IRAM_BANK0                                          ----                ----                ----                                                                                                                                                                                                     *
*    ORAM_BANK0                                          ----                ----                ----                                                                                                                                                                                                     *
* "D:\Prj_GPCE3400\ZMM001A(EN)_MMMMMMM\soft\V44_asV34\Debug\Algorithm.obj"                                                                                                                                                                                                                                *
*    DEBUG                                               ----                ----                ----                                                                                                                                                                                                     *
*    _CODE_SPI_SEC(CODE)                                 205BF9              207C83              208B                                                                                                                                                                                                     *
*    _DATA_SPI_SEC(DATA)                                 ----                ----                ----                                                                                                                                                                                                     *
*    TEXT                                                ----                ----                ----                                                                                                                                                                                                     *
*    IRAM                                                20350D(5FB)         20363B(729)         12F                                                                                                                                                                                                      *
*    ISRAM                                               ----                ----                ----                                                                                                                                                                                                     *
*    RAM                                                 ----                ----                ----                                                                                                                                                                                                     *
*    SRAM                                                ----                ----                ----                                                                                                                                                                                                     *
*    ORAM                                                ----                ----                ----                                                                                                                                                                                                     *
*    OSRAM                                               ----                ----                ----                                                                                                                                                                                                     *
*    NB_DATA                                             20190A              20191E              15                                                                                                                                                                                                       *
*    CTOR                                                ----                ----                ----                                                                                                                                                                                                     *
*    DTOR                                                ----                ----                ----                                                                                                                                                                                                     *
*    IM                                                  ----                ----                ----                                                                                                                                                                                                     *
*    LINKONCE                                            ----                ----                ----                                                                                                                                                                                                     *
*    VTBL                                                ----                ----                ----                                                                                                                                                                                                     *
*    NB_MERGE                                            ----                ----                ----                                                                                                                                                                                                     *
*    RAM_BANK0                                           ----                ----                ----                                                                                                                                                                                                     *
*    IRAM_BANK0                                          ----                ----                ----                                                                                                                                                                                                     *
*    ORAM_BANK0                                          ----                ----                ----                                                                                                                                                                                                     *
* "D:\Prj_GPCE3400\ZMM001A(EN)_MMMMMMM\soft\V44_asV34\Debug\Play_Speech.obj"                                                                                                                                                                                                                              *
*    DEBUG                                               ----                ----                ----                                                                                                                                                                                                     *
*    _CODE_SPI_SEC(CODE)                                 2057CB              205BF8              42E                                                                                                                                                                                                      *
*    _DATA_SPI_SEC(DATA)                                 ----                ----                ----                                                                                                                                                                                                     *
*    TEXT                                                ----                ----                ----                                                                                                                                                                                                     *
*    IRAM                                                2034FD(5EB)         203503(5F1)         7                                                                                                                                                                                                        *
*    ISRAM                                               ----                ----                ----                                                                                                                                                                                                     *
*    RAM                                                 ----                ----                ----                                                                                                                                                                                                     *
*    SRAM                                                ----                ----                ----                                                                                                                                                                                                     *
*    ORAM                                                ----                ----                ----                                                                                                                                                                                                     *
*    OSRAM                                               ----                ----                ----                                                                                                                                                                                                     *
*    NB_DATA                                             ----                ----                ----                                                                                                                                                                                                     *
*    CTOR                                                ----                ----                ----                                                                                                                                                                                                     *
*    DTOR                                                ----                ----                ----                                                                                                                                                                                                     *
*    IM                                                  ----                ----                ----                                                                                                                                                                                                     *
*    LINKONCE                                            ----                ----                ----                                                                                                                                                                                                     *
*    VTBL                                                ----                ----                ----                                                                                                                                                                                                     *
*    NB_MERGE                                            ----                ----                ----                                                                                                                                                                                                     *
*    RAM_BANK0                                           ----                ----                ----                                                                                                                                                                                                     *
*    IRAM_BANK0                                          ----                ----                ----                                                                                                                                                                                                     *
*    ORAM_BANK0                                          ----                ----                ----                                                                                                                                                                                                     *
* "D:\Prj_GPCE3400\ZMM001A(EN)_MMMMMMM\soft\V44_asV34\Debug\Key_server.obj"                                                                                                                                                                                                                               *
*    DEBUG                                               ----                ----                ----                                                                                                                                                                                                     *
*    _CODE_SPI_SEC(CODE)                                 204AFB              204B86              8C                                                                                                                                                                                                       *
*    _DATA_SPI_SEC(DATA)                                 ----                ----                ----                                                                                                                                                                                                     *
*    TEXT                                                ----                ----                ----                                                                                                                                                                                                     *
*    IRAM                                                ----                ----                ----                                                                                                                                                                                                     *
*    ISRAM                                               ----                ----                ----                                                                                                                                                                                                     *
*    RAM                                                 5C2                 5C7                 6                                                                                                                                                                                                        *
*    SRAM                                                ----                ----                ----                                                                                                                                                                                                     *
*    ORAM                                                ----                ----                ----                                                                                                                                                                                                     *
*    OSRAM                                               ----                ----                ----                                                                                                                                                                                                     *
*    NB_DATA                                             ----                ----                ----                                                                                                                                                                                                     *
*    CTOR                                                ----                ----                ----                                                                                                                                                                                                     *
*    DTOR                                                ----                ----                ----                                                                                                                                                                                                     *
*    IM                                                  ----                ----                ----                                                                                                                                                                                                     *
*    LINKONCE                                            ----                ----                ----                                                                                                                                                                                                     *
*    VTBL                                                ----                ----                ----                                                                                                                                                                                                     *
*    NB_MERGE                                            ----                ----                ----                                                                                                                                                                                                     *
*    RAM_BANK0                                           ----                ----                ----                                                                                                                                                                                                     *
*    IRAM_BANK0                                          ----                ----                ----                                                                                                                                                                                                     *
*    ORAM_BANK0                                          ----                ----                ----                                                                                                                                                                                                     *
* "D:\Prj_GPCE3400\ZMM001A(EN)_MMMMMMM\soft\V44_asV34\Debug\Sleep.obj"                                                                                                                                                                                                                                    *
*    DEBUG                                               ----                ----                ----                                                                                                                                                                                                     *
*    _CODE_SPI_SEC(CODE)                                 204CC8              204D80              B9                                                                                                                                                                                                       *
*    _DATA_SPI_SEC(DATA)                                 ----                ----                ----                                                                                                                                                                                                     *
*    TEXT                                                ----                ----                ----                                                                                                                                                                                                     *
*    IRAM                                                ----                ----                ----                                                                                                                                                                                                     *
*    ISRAM                                               ----                ----                ----                                                                                                                                                                                                     *
*    RAM                                                 ----                ----                ----                                                                                                                                                                                                     *
*    SRAM                                                ----                ----                ----                                                                                                                                                                                                     *
*    ORAM                                                ----                ----                ----                                                                                                                                                                                                     *
*    OSRAM                                               ----                ----                ----                                                                                                                                                                                                     *
*    NB_DATA                                             ----                ----                ----                                                                                                                                                                                                     *
*    CTOR                                                ----                ----                ----                                                                                                                                                                                                     *
*    DTOR                                                ----                ----                ----                                                                                                                                                                                                     *
*    IM                                                  ----                ----                ----                                                                                                                                                                                                     *
*    LINKONCE                                            ----                ----                ----                                                                                                                                                                                                     *
*    VTBL                                                ----                ----                ----                                                                                                                                                                                                     *
*    NB_MERGE                                            ----                ----                ----                                                                                                                                                                                                     *
*    RAM_BANK0                                           ----                ----                ----                                                                                                                                                                                                     *
*    IRAM_BANK0                                          ----                ----                ----                                                                                                                                                                                                     *
*    ORAM_BANK0                                          ----                ----                ----                                                                                                                                                                                                     *
* "D:\Prj_GPCE3400\ZMM001A(EN)_MMMMMMM\soft\V44_asV34\Debug\CheckSum_CE3400.obj"                                                                                                                                                                                                                          *
*    DEBUG                                               ----                ----                ----                                                                                                                                                                                                     *
*    _CODE_SPI_SEC(CODE)                                 20498B              2049F7              6D                                                                                                                                                                                                       *
*    _DATA_SPI_SEC(DATA)                                 ----                ----                ----                                                                                                                                                                                                     *
*    TEXT                                                ----                ----                ----                                                                                                                                                                                                     *
*    IRAM                                                ----                ----                ----                                                                                                                                                                                                     *
*    ISRAM                                               ----                ----                ----                                                                                                                                                                                                     *
*    RAM                                                 ----                ----                ----                                                                                                                                                                                                     *
*    SRAM                                                ----                ----                ----                                                                                                                                                                                                     *
*    ORAM                                                ----                ----                ----                                                                                                                                                                                                     *
*    OSRAM                                               ----                ----                ----                                                                                                                                                                                                     *
*    NB_DATA                                             ----                ----                ----                                                                                                                                                                                                     *
*    CTOR                                                ----                ----                ----                                                                                                                                                                                                     *
*    DTOR                                                ----                ----                ----                                                                                                                                                                                                     *
*    IM                                                  ----                ----                ----                                                                                                                                                                                                     *
*    LINKONCE                                            ----                ----                ----                                                                                                                                                                                                     *
*    VTBL                                                ----                ----                ----                                                                                                                                                                                                     *
*    NB_MERGE                                            ----                ----                ----                                                                                                                                                                                                     *
*    RAM_BANK0                                           ----                ----                ----                                                                                                                                                                                                     *
*    IRAM_BANK0                                          ----                ----                ----                                                                                                                                                                                                     *
*    ORAM_BANK0                                          ----                ----                ----                                                                                                                                                                                                     *
* "D:\Prj_GPCE3400\ZMM001A(EN)_MMMMMMM\soft\V44_asV34\Debug\TestBondingC.obj"                                                                                                                                                                                                                             *
*    DEBUG                                               ----                ----                ----                                                                                                                                                                                                     *
*    _CODE_SPI_SEC(CODE)                                 204936              20498A              55                                                                                                                                                                                                       *
*    _DATA_SPI_SEC(DATA)                                 ----                ----                ----                                                                                                                                                                                                     *
*    TEXT                                                ----                ----                ----                                                                                                                                                                                                     *
*    IRAM                                                ----                ----                ----                                                                                                                                                                                                     *
*    ISRAM                                               ----                ----                ----                                                                                                                                                                                                     *
*    RAM                                                 ----                ----                ----                                                                                                                                                                                                     *
*    SRAM                                                ----                ----                ----                                                                                                                                                                                                     *
*    ORAM                                                ----                ----                ----                                                                                                                                                                                                     *
*    OSRAM                                               ----                ----                ----                                                                                                                                                                                                     *
*    NB_DATA                                             ----                ----                ----                                                                                                                                                                                                     *
*    CTOR                                                ----                ----                ----                                                                                                                                                                                                     *
*    DTOR                                                ----                ----                ----                                                                                                                                                                                                     *
*    IM                                                  ----                ----                ----                                                                                                                                                                                                     *
*    LINKONCE                                            ----                ----                ----                                                                                                                                                                                                     *
*    VTBL                                                ----                ----                ----                                                                                                                                                                                                     *
*    NB_MERGE                                            ----                ----                ----                                                                                                                                                                                                     *
*    RAM_BANK0                                           ----                ----                ----                                                                                                                                                                                                     *
*    IRAM_BANK0                                          ----                ----                ----                                                                                                                                                                                                     *
*    ORAM_BANK0                                          ----                ----                ----                                                                                                                                                                                                     *
* "D:\Prj_GPCE3400\ZMM001A(EN)_MMMMMMM\soft\V44_asV34\Debug\LED.obj"                                                                                                                                                                                                                                      *
*    DEBUG                                               ----                ----                ----                                                                                                                                                                                                     *
*    _CODE_SPI_SEC(CODE)                                 204B87              204C13              8D                                                                                                                                                                                                       *
*    _DATA_SPI_SEC(DATA)                                 ----                ----                ----                                                                                                                                                                                                     *
*    TEXT                                                ----                ----                ----                                                                                                                                                                                                     *
*    IRAM                                                2034F8(5E6)         2034F8(5E6)         1                                                                                                                                                                                                        *
*    ISRAM                                               ----                ----                ----                                                                                                                                                                                                     *
*    RAM                                                 ----                ----                ----                                                                                                                                                                                                     *
*    SRAM                                                ----                ----                ----                                                                                                                                                                                                     *
*    ORAM                                                ----                ----                ----                                                                                                                                                                                                     *
*    OSRAM                                               ----                ----                ----                                                                                                                                                                                                     *
*    NB_DATA                                             ----                ----                ----                                                                                                                                                                                                     *
*    CTOR                                                ----                ----                ----                                                                                                                                                                                                     *
*    DTOR                                                ----                ----                ----                                                                                                                                                                                                     *
*    IM                                                  ----                ----                ----                                                                                                                                                                                                     *
*    LINKONCE                                            ----                ----                ----                                                                                                                                                                                                     *
*    VTBL                                                ----                ----                ----                                                                                                                                                                                                     *
*    NB_MERGE                                            ----                ----                ----                                                                                                                                                                                                     *
*    RAM_BANK0                                           ----                ----                ----                                                                                                                                                                                                     *
*    IRAM_BANK0                                          ----                ----                ----                                                                                                                                                                                                     *
*    ORAM_BANK0                                          ----                ----                ----                                                                                                                                                                                                     *
* "D:\Prj_GPCE3400\ZMM001A(EN)_MMMMMMM\soft\V44_asV34\Debug\AntiCrack.obj"                                                                                                                                                                                                                                *
*    DEBUG                                               ----                ----                ----                                                                                                                                                                                                     *
*    _CODE_SPI_SEC(CODE)                                 2048E8              204935              4E                                                                                                                                                                                                       *
*    _DATA_SPI_SEC(DATA)                                 ----                ----                ----                                                                                                                                                                                                     *
*    TEXT                                                ----                ----                ----                                                                                                                                                                                                     *
*    IRAM                                                2034F9(5E7)         2034F9(5E7)         1                                                                                                                                                                                                        *
*    ISRAM                                               ----                ----                ----                                                                                                                                                                                                     *
*    RAM                                                 ----                ----                ----                                                                                                                                                                                                     *
*    SRAM                                                ----                ----                ----                                                                                                                                                                                                     *
*    ORAM                                                ----                ----                ----                                                                                                                                                                                                     *
*    OSRAM                                               ----                ----                ----                                                                                                                                                                                                     *
*    NB_DATA                                             201928              20192A              3                                                                                                                                                                                                        *
*    CTOR                                                ----                ----                ----                                                                                                                                                                                                     *
*    DTOR                                                ----                ----                ----                                                                                                                                                                                                     *
*    IM                                                  ----                ----                ----                                                                                                                                                                                                     *
*    LINKONCE                                            ----                ----                ----                                                                                                                                                                                                     *
*    VTBL                                                ----                ----                ----                                                                                                                                                                                                     *
*    NB_MERGE                                            ----                ----                ----                                                                                                                                                                                                     *
*    RAM_BANK0                                           ----                ----                ----                                                                                                                                                                                                     *
*    IRAM_BANK0                                          ----                ----                ----                                                                                                                                                                                                     *
*    ORAM_BANK0                                          ----                ----                ----                                                                                                                                                                                                     *
* "D:\Prj_GPCE3400\ZMM001A(EN)_MMMMMMM\soft\V44_asV34\Debug\SPI_Flash_CE3.obj"                                                                                                                                                                                                                            *
*    DEBUG                                               ----                ----                ----                                                                                                                                                                                                     *
*    _CODE_SPI_SEC(CODE)                                 204A77              204AFA              84                                                                                                                                                                                                       *
*    _DATA_SPI_SEC(DATA)                                 ----                ----                ----                                                                                                                                                                                                     *
*    TEXT                                                ----                ----                ----                                                                                                                                                                                                     *
*    IRAM                                                ----                ----                ----                                                                                                                                                                                                     *
*    ISRAM                                               ----                ----                ----                                                                                                                                                                                                     *
*    RAM                                                 5C8                 5CC                 5                                                                                                                                                                                                        *
*    SRAM                                                ----                ----                ----                                                                                                                                                                                                     *
*    ORAM                                                ----                ----                ----                                                                                                                                                                                                     *
*    OSRAM                                               ----                ----                ----                                                                                                                                                                                                     *
*    NB_DATA                                             ----                ----                ----                                                                                                                                                                                                     *
*    CTOR                                                ----                ----                ----                                                                                                                                                                                                     *
*    DTOR                                                ----                ----                ----                                                                                                                                                                                                     *
*    IM                                                  ----                ----                ----                                                                                                                                                                                                     *
*    LINKONCE                                            ----                ----                ----                                                                                                                                                                                                     *
*    VTBL                                                ----                ----                ----                                                                                                                                                                                                     *
*    NB_MERGE                                            ----                ----                ----                                                                                                                                                                                                     *
*    RAM_BANK0                                           ----                ----                ----                                                                                                                                                                                                     *
*    IRAM_BANK0                                          ----                ----                ----                                                                                                                                                                                                     *
*    ORAM_BANK0                                          ----                ----                ----                                                                                                                                                                                                     *
*    SPIFC_RAMCode_SEC(CODE)                             205300(10)          205620(330)         321                                                                                                                                                                                                      *
* "D:\Prj_GPCE3400\ZMM001A(EN)_MMMMMMM\soft\V44_asV34\Debug\CTS_Sensor.obj"                                                                                                                                                                                                                               *
*    DEBUG                                               ----                ----                ----                                                                                                                                                                                                     *
*    _CODE_SPI_IN_FOLDER_SEC_CTS(CODE)                   20381B              20392F              115                                                                                                                                                                                                      *
*    _DATA_SPI_IN_FOLDER_SEC_CTS(DATA)                   ----                ----                ----                                                                                                                                                                                                     *
*    TEXT                                                ----                ----                ----                                                                                                                                                                                                     *
*    IRAM                                                ----                ----                ----                                                                                                                                                                                                     *
*    ISRAM                                               ----                ----                ----                                                                                                                                                                                                     *
*    RAM                                                 5CD                 5E5                 19                                                                                                                                                                                                       *
*    SRAM                                                ----                ----                ----                                                                                                                                                                                                     *
*    ORAM                                                ----                ----                ----                                                                                                                                                                                                     *
*    OSRAM                                               ----                ----                ----                                                                                                                                                                                                     *
*    NB_DATA                                             ----                ----                ----                                                                                                                                                                                                     *
*    CTOR                                                ----                ----                ----                                                                                                                                                                                                     *
*    DTOR                                                ----                ----                ----                                                                                                                                                                                                     *
*    IM                                                  ----                ----                ----                                                                                                                                                                                                     *
*    LINKONCE                                            ----                ----                ----                                                                                                                                                                                                     *
*    VTBL                                                ----                ----                ----                                                                                                                                                                                                     *
*    NB_MERGE                                            ----                ----                ----                                                                                                                                                                                                     *
*    RAM_BANK0                                           ----                ----                ----                                                                                                                                                                                                     *
*    IRAM_BANK0                                          ----                ----                ----                                                                                                                                                                                                     *
*    ORAM_BANK0                                          ----                ----                ----                                                                                                                                                                                                     *
* "D:\Prj_GPCE3400\ZMM001A(EN)_MMMMMMM\soft\V44_asV34\Debug\CTS_User.obj"                                                                                                                                                                                                                                 *
*    DEBUG                                               ----                ----                ----                                                                                                                                                                                                     *
*    _CODE_SPI_IN_FOLDER_SEC_CTS(CODE)                   20398D              2039E0              54                                                                                                                                                                                                       *
*    _DATA_SPI_IN_FOLDER_SEC_CTS(DATA)                   ----                ----                ----                                                                                                                                                                                                     *
*    TEXT                                                ----                ----                ----                                                                                                                                                                                                     *
*    IRAM                                                2034FB(5E9)         2034FC(5EA)         2                                                                                                                                                                                                        *
*    ISRAM                                               ----                ----                ----                                                                                                                                                                                                     *
*    RAM                                                 ----                ----                ----                                                                                                                                                                                                     *
*    SRAM                                                ----                ----                ----                                                                                                                                                                                                     *
*    ORAM                                                ----                ----                ----                                                                                                                                                                                                     *
*    OSRAM                                               ----                ----                ----                                                                                                                                                                                                     *
*    NB_DATA                                             ----                ----                ----                                                                                                                                                                                                     *
*    CTOR                                                ----                ----                ----                                                                                                                                                                                                     *
*    DTOR                                                ----                ----                ----                                                                                                                                                                                                     *
*    IM                                                  ----                ----                ----                                                                                                                                                                                                     *
*    LINKONCE                                            ----                ----                ----                                                                                                                                                                                                     *
*    VTBL                                                ----                ----                ----                                                                                                                                                                                                     *
*    NB_MERGE                                            ----                ----                ----                                                                                                                                                                                                     *
*    RAM_BANK0                                           ----                ----                ----                                                                                                                                                                                                     *
*    IRAM_BANK0                                          ----                ----                ----                                                                                                                                                                                                     *
*    ORAM_BANK0                                          ----                ----                ----                                                                                                                                                                                                     *
* "D:\Prj_GPCE3400\ZMM001A(EN)_MMMMMMM\soft\V44_asV34\Debug\RomCodeOBJ_GPCE1_CE3.obj"                                                                                                                                                                                                                     *
*    ROMCODE_SPI_Data(CODE)                              201940              2034DA              1B9B                                                                                                                                                                                                     *
* "D:\Prj_GPCE3400\ZMM001A(EN)_MMMMMMM\soft\V44_asV34\Debug\Rom_ZMM_V03_bin.res"                                                                                                                                                                                                                          *
*    __sn_section_RES_ROM_ZMM_V03_BIN(DATA)              207C84              26C8F2              64C6F                                                                                                                                                                                                    *
* "D:\SVN_Local\library\16-bit\HW Capacitive Touch Sensor\Source Code\LibMaker\V1.1.0\CTS_Sensor" "CTS_V1.1.0.lib"
*    DEBUG                                               ----                ----                ----                                                                                                                                                                                                     *
*    CODE                                                20363C              20381A              1DF                                                                                                                                                                                                      *
*    DATA                                                ----                ----                ----                                                                                                                                                                                                     *
*    TEXT                                                ----                ----                ----                                                                                                                                                                                                     *
*    IRAM                                                2034FA(5E8)         2034FA(5E8)         1                                                                                                                                                                                                        *
*    ISRAM                                               ----                ----                ----                                                                                                                                                                                                     *
*    RAM                                                 ----                ----                ----                                                                                                                                                                                                     *
*    SRAM                                                ----                ----                ----                                                                                                                                                                                                     *
*    ORAM                                                ----                ----                ----                                                                                                                                                                                                     *
*    OSRAM                                               ----                ----                ----                                                                                                                                                                                                     *
*    NB_DATA                                             ----                ----                ----                                                                                                                                                                                                     *
*    CTOR                                                ----                ----                ----                                                                                                                                                                                                     *
*    DTOR                                                ----                ----                ----                                                                                                                                                                                                     *
*    IM                                                  ----                ----                ----                                                                                                                                                                                                     *
*    LINKONCE                                            ----                ----                ----                                                                                                                                                                                                     *
*    VTBL                                                ----                ----                ----                                                                                                                                                                                                     *
*    NB_MERGE                                            ----                ----                ----                                                                                                                                                                                                     *
*    RAM_BANK0                                           ----                ----                ----                                                                                                                                                                                                     *
*    IRAM_BANK0                                          ----                ----                ----                                                                                                                                                                                                     *
*    ORAM_BANK0                                          ----                ----                ----                                                                                                                                                                                                     *
*    OVERLAP_CTS_API_RAM(ORAM)                           599                 5AF                 17                                                                                                                                                                                                       *
*    CTS_ISR_Service_ROMBLOCK(CODE)                      201800              201868              69                                                                                                                                                                                                       *
* "modu1" "CMacro1232.lib"                                                                                                                                                                                                                                                                                *
*    DEBUG                                               ----                ----                ----                                                                                                                                                                                                     *
*    CODE                                                203930              20398C              5D                                                                                                                                                                                                       *
*    DATA                                                ----                ----                ----                                                                                                                                                                                                     *
*    TEXT                                                ----                ----                ----                                                                                                                                                                                                     *
*    IRAM                                                ----                ----                ----                                                                                                                                                                                                     *
*    ISRAM                                               ----                ----                ----                                                                                                                                                                                                     *
*    RAM                                                 ----                ----                ----                                                                                                                                                                                                     *
*    SRAM                                                ----                ----                ----                                                                                                                                                                                                     *
*    ORAM                                                ----                ----                ----                                                                                                                                                                                                     *
*    OSRAM                                               ----                ----                ----                                                                                                                                                                                                     *
*    NB_DATA                                             ----                ----                ----                                                                                                                                                                                                     *
*    CTOR                                                ----                ----                ----                                                                                                                                                                                                     *
*    DTOR                                                ----                ----                ----                                                                                                                                                                                                     *
*    IM                                                  ----                ----                ----                                                                                                                                                                                                     *
*    LINKONCE                                            ----                ----                ----                                                                                                                                                                                                     *
*    VTBL                                                ----                ----                ----                                                                                                                                                                                                     *
*    NB_MERGE                                            ----                ----                ----                                                                                                                                                                                                     *
*    RAM_BANK0                                           ----                ----                ----                                                                                                                                                                                                     *
*    IRAM_BANK0                                          ----                ----                ----                                                                                                                                                                                                     *
*    ORAM_BANK0                                          ----                ----                ----                                                                                                                                                                                                     *
* "__clz16" "CMacro1232.lib"                                                                                                                                                                                                                                                                              *
*    DEBUG                                               ----                ----                ----                                                                                                                                                                                                     *
*    CODE                                                201869              201873              B                                                                                                                                                                                                        *
*    DATA                                                ----                ----                ----                                                                                                                                                                                                     *
*    TEXT                                                ----                ----                ----                                                                                                                                                                                                     *
*    IRAM                                                ----                ----                ----                                                                                                                                                                                                     *
*    ISRAM                                               ----                ----                ----                                                                                                                                                                                                     *
*    RAM                                                 ----                ----                ----                                                                                                                                                                                                     *
*    SRAM                                                ----                ----                ----                                                                                                                                                                                                     *
*    ORAM                                                ----                ----                ----                                                                                                                                                                                                     *
*    OSRAM                                               ----                ----                ----                                                                                                                                                                                                     *
*    NB_DATA                                             ----                ----                ----                                                                                                                                                                                                     *
*    CTOR                                                ----                ----                ----                                                                                                                                                                                                     *
*    DTOR                                                ----                ----                ----                                                                                                                                                                                                     *
*    IM                                                  ----                ----                ----                                                                                                                                                                                                     *
*    LINKONCE                                            ----                ----                ----                                                                                                                                                                                                     *
*    VTBL                                                ----                ----                ----                                                                                                                                                                                                     *
*    NB_MERGE                                            ----                ----                ----                                                                                                                                                                                                     *
*    RAM_BANK0                                           ----                ----                ----                                                                                                                                                                                                     *
*    IRAM_BANK0                                          ----                ----                ----                                                                                                                                                                                                     *
*    ORAM_BANK0                                          ----                ----                ----                                                                                                                                                                                                     *
* "__divi16_n" "CMacro1232.lib"                                                                                                                                                                                                                                                                           *
*    DEBUG                                               ----                ----                ----                                                                                                                                                                                                     *
*    CODE                                                201874              20187D              A                                                                                                                                                                                                        *
*    DATA                                                ----                ----                ----                                                                                                                                                                                                     *
*    TEXT                                                ----                ----                ----                                                                                                                                                                                                     *
*    IRAM                                                ----                ----                ----                                                                                                                                                                                                     *
*    ISRAM                                               ----                ----                ----                                                                                                                                                                                                     *
*    RAM                                                 ----                ----                ----                                                                                                                                                                                                     *
*    SRAM                                                ----                ----                ----                                                                                                                                                                                                     *
*    ORAM                                                ----                ----                ----                                                                                                                                                                                                     *
*    OSRAM                                               ----                ----                ----                                                                                                                                                                                                     *
*    NB_DATA                                             ----                ----                ----                                                                                                                                                                                                     *
*    CTOR                                                ----                ----                ----                                                                                                                                                                                                     *
*    DTOR                                                ----                ----                ----                                                                                                                                                                                                     *
*    IM                                                  ----                ----                ----                                                                                                                                                                                                     *
*    LINKONCE                                            ----                ----                ----                                                                                                                                                                                                     *
*    VTBL                                                ----                ----                ----                                                                                                                                                                                                     *
*    NB_MERGE                                            ----                ----                ----                                                                                                                                                                                                     *
*    RAM_BANK0                                           ----                ----                ----                                                                                                                                                                                                     *
*    IRAM_BANK0                                          ----                ----                ----                                                                                                                                                                                                     *
*    ORAM_BANK0                                          ----                ----                ----                                                                                                                                                                                                     *
* "lshiu1" "CMacro1232.lib"                                                                                                                                                                                                                                                                               *
*    DEBUG                                               ----                ----                ----                                                                                                                                                                                                     *
*    CODE                                                2018F2              2018F9              8                                                                                                                                                                                                        *
*    DATA                                                ----                ----                ----                                                                                                                                                                                                     *
*    TEXT                                                ----                ----                ----                                                                                                                                                                                                     *
*    IRAM                                                ----                ----                ----                                                                                                                                                                                                     *
*    ISRAM                                               ----                ----                ----                                                                                                                                                                                                     *
*    RAM                                                 ----                ----                ----                                                                                                                                                                                                     *
*    SRAM                                                ----                ----                ----                                                                                                                                                                                                     *
*    ORAM                                                ----                ----                ----                                                                                                                                                                                                     *
*    OSRAM                                               ----                ----                ----                                                                                                                                                                                                     *
*    NB_DATA                                             ----                ----                ----                                                                                                                                                                                                     *
*    CTOR                                                ----                ----                ----                                                                                                                                                                                                     *
*    DTOR                                                ----                ----                ----                                                                                                                                                                                                     *
*    IM                                                  ----                ----                ----                                                                                                                                                                                                     *
*    LINKONCE                                            ----                ----                ----                                                                                                                                                                                                     *
*    VTBL                                                ----                ----                ----                                                                                                                                                                                                     *
*    NB_MERGE                                            ----                ----                ----                                                                                                                                                                                                     *
*    RAM_BANK0                                           ----                ----                ----                                                                                                                                                                                                     *
*    IRAM_BANK0                                          ----                ----                ----                                                                                                                                                                                                     *
*    ORAM_BANK0                                          ----                ----                ----                                                                                                                                                                                                     *
* "rshu1" "CMacro1232.lib"                                                                                                                                                                                                                                                                                *
*    DEBUG                                               ----                ----                ----                                                                                                                                                                                                     *
*    CODE                                                2018FA              201901              8                                                                                                                                                                                                        *
*    DATA                                                ----                ----                ----                                                                                                                                                                                                     *
*    TEXT                                                ----                ----                ----                                                                                                                                                                                                     *
*    IRAM                                                ----                ----                ----                                                                                                                                                                                                     *
*    ISRAM                                               ----                ----                ----                                                                                                                                                                                                     *
*    RAM                                                 ----                ----                ----                                                                                                                                                                                                     *
*    SRAM                                                ----                ----                ----                                                                                                                                                                                                     *
*    ORAM                                                ----                ----                ----                                                                                                                                                                                                     *
*    OSRAM                                               ----                ----                ----                                                                                                                                                                                                     *
*    NB_DATA                                             ----                ----                ----                                                                                                                                                                                                     *
*    CTOR                                                ----                ----                ----                                                                                                                                                                                                     *
*    DTOR                                                ----                ----                ----                                                                                                                                                                                                     *
*    IM                                                  ----                ----                ----                                                                                                                                                                                                     *
*    LINKONCE                                            ----                ----                ----                                                                                                                                                                                                     *
*    VTBL                                                ----                ----                ----                                                                                                                                                                                                     *
*    NB_MERGE                                            ----                ----                ----                                                                                                                                                                                                     *
*    RAM_BANK0                                           ----                ----                ----                                                                                                                                                                                                     *
*    IRAM_BANK0                                          ----                ----                ----                                                                                                                                                                                                     *
*    ORAM_BANK0                                          ----                ----                ----                                                                                                                                                                                                     *
* "_GPTag" "CMacro1232.lib"                                                                                                                                                                                                                                                                               *
*    DEBUG                                               ----                ----                ----                                                                                                                                                                                                     *
*    CODE                                                201902              201909              8                                                                                                                                                                                                        *
*    DATA                                                ----                ----                ----                                                                                                                                                                                                     *
*    TEXT                                                ----                ----                ----                                                                                                                                                                                                     *
*    IRAM                                                ----                ----                ----                                                                                                                                                                                                     *
*    ISRAM                                               ----                ----                ----                                                                                                                                                                                                     *
*    RAM                                                 ----                ----                ----                                                                                                                                                                                                     *
*    SRAM                                                ----                ----                ----                                                                                                                                                                                                     *
*    ORAM                                                ----                ----                ----                                                                                                                                                                                                     *
*    OSRAM                                               ----                ----                ----                                                                                                                                                                                                     *
*    NB_DATA                                             ----                ----                ----                                                                                                                                                                                                     *
*    CTOR                                                ----                ----                ----                                                                                                                                                                                                     *
*    DTOR                                                ----                ----                ----                                                                                                                                                                                                     *
*    IM                                                  ----                ----                ----                                                                                                                                                                                                     *
*    LINKONCE                                            ----                ----                ----                                                                                                                                                                                                     *
*    VTBL                                                ----                ----                ----                                                                                                                                                                                                     *
*    NB_MERGE                                            ----                ----                ----                                                                                                                                                                                                     *
*    RAM_BANK0                                           ----                ----                ----                                                                                                                                                                                                     *
*    IRAM_BANK0                                          ----                ----                ----                                                                                                                                                                                                     *
*    ORAM_BANK0                                          ----                ----                ----                                                                                                                                                                                                     *
* "Init Table"                                           2034DB              2034E3              9                                                                                                                                                                                                        *
***********************************************************************************************************************************************************************************************************************************************************************************************************

***********************************************************************************************************************************************************************************************************************************************************************************************************
*                             M E M O R Y     S U M M A R Y                                                                                                                                                                                                                                               *
***********************************************************************************************************************************************************************************************************************************************************************************************************
*     Type                          Total               Using        Remain                                                                                                                                                                                                                               *
***********************************************************************************************************************************************************************************************************************************************************************************************************
* "SRam/OSRam/ISRam"                40                   30           10                                                                                                                                                                                                                                  *
* "Ram"                             BF0                  71A          4D6                                                                                                                                                                                                                                 *
* "First Bank Rom"                  0                    0            0                                                                                                                                                                                                                                   *
* "Other Banks Rom"                 FFE800               6A2A2        F9455E                                                                                                                                                                                                                              *
***********************************************************************************************************************************************************************************************************************************************************************************************************

Linker Output Filename : D:\Prj_GPCE3400\ZMM001A(EN)_MMMMMMM\soft\V44_asV34\Debug\GPCE3400A_Demo.TSK
Disk  Mapping Filename : D:\Prj_GPCE3400\ZMM001A(EN)_MMMMMMM\soft\V44_asV34\Debug\GPCE3400A_Demo.map
Symbol  Table FileName : D:\Prj_GPCE3400\ZMM001A(EN)_MMMMMMM\soft\V44_asV34\Debug\GPCE3400A_Demo.sym
Format :                 Microtek

Linker Errors :          0
Output Format :          TSK
Max Used Address :       0x26C8F2
